

Microchip MPLAB XC8 Assembler V2.05 build -831301201 
                                                                                               Thu Dec 19 19:06:23 2019

Microchip MPLAB XC8 C Compiler v2.05 (Free license) build 20181220022703 Og1 
     1                           	processor	16F1719
     2                           	opt	pw 120
     3                           	opt	flic
     4                           	psect	stringtext1,global,class=STRCODE,delta=2
     5                           	psect	stringtext2,global,class=STRCODE,delta=2
     6                           	psect	stringtext3,global,class=STRCODE,delta=2
     7                           	psect	stringtext4,global,class=STRCODE,delta=2
     8                           	psect	stringtext5,global,class=STRCODE,delta=2
     9                           	psect	stringtext6,global,class=STRCODE,delta=2
    10                           	psect	stringtext7,global,class=STRCODE,delta=2
    11                           	psect	cinit,global,class=CODE,merge=1,delta=2
    12                           	psect	bssCOMMON,global,class=COMMON,space=1,delta=1
    13                           	psect	bssBANK0,global,class=BANK0,space=1,delta=1
    14                           	psect	clrtext,global,class=CODE,delta=2
    15                           	psect	cstackCOMMON,global,class=COMMON,space=1,delta=1
    16                           	psect	cstackBANK0,global,class=BANK0,space=1,delta=1
    17                           	psect	maintext,global,class=CODE,merge=1,split=1,delta=2
    18                           	psect	text1,local,class=CODE,merge=1,delta=2
    19                           	psect	text2,local,class=CODE,merge=1,delta=2
    20                           	psect	text3,local,class=CODE,merge=1,delta=2
    21                           	psect	text4,local,class=CODE,merge=1,delta=2
    22                           	psect	text5,local,class=CODE,merge=1,delta=2
    23                           	psect	text6,local,class=CODE,merge=1,delta=2
    24                           	psect	text7,local,class=CODE,merge=1,delta=2
    25                           	psect	text8,local,class=CODE,merge=1,delta=2
    26                           	psect	text9,local,class=CODE,merge=1,delta=2
    27                           	psect	text10,local,class=CODE,merge=1,delta=2
    28                           	psect	text11,local,class=CODE,merge=1,delta=2
    29                           	psect	text12,local,class=CODE,merge=1,delta=2
    30                           	psect	text13,local,class=CODE,merge=1,delta=2
    31                           	psect	text14,local,class=CODE,merge=1,delta=2
    32                           	psect	text15,local,class=CODE,merge=1,delta=2
    33                           	psect	text16,local,class=CODE,merge=1,delta=2
    34                           	psect	text17,local,class=CODE,merge=1,delta=2
    35                           	psect	text18,local,class=CODE,merge=1,delta=2,group=1
    36                           	psect	intentry,global,class=CODE,delta=2
    37                           	dabs	1,0x7E,2
    38  0000                     
    39                           ; Version 2.05
    40                           ; Generated 20/12/2018 GMT
    41                           ; 
    42                           ; Copyright © 2018, Microchip Technology Inc. and its subsidiaries ("Microchip")
    43                           ; All rights reserved.
    44                           ; 
    45                           ; This software is developed by Microchip Technology Inc. and its subsidiaries ("Microch
      +                          ip").
    46                           ; 
    47                           ; Redistribution and use in source and binary forms, with or without modification, are
    48                           ; permitted provided that the following conditions are met:
    49                           ; 
    50                           ;     1. Redistributions of source code must retain the above copyright notice, this lis
      +                          t of
    51                           ;        conditions and the following disclaimer.
    52                           ; 
    53                           ;     2. Redistributions in binary form must reproduce the above copyright notice, this 
      +                          list
    54                           ;        of conditions and the following disclaimer in the documentation and/or other
    55                           ;        materials provided with the distribution.
    56                           ; 
    57                           ;     3. Microchip's name may not be used to endorse or promote products derived from th
      +                          is
    58                           ;        software without specific prior written permission.
    59                           ; 
    60                           ; THIS SOFTWARE IS PROVIDED BY MICROCHIP "AS IS" AND ANY EXPRESS OR IMPLIED WARRANTIES,
    61                           ; INCLUDING, BUT NOT LIMITED TO, THE IMPLIED WARRANTIES OF MERCHANTABILITY AND FITNESS F
      +                          OR
    62                           ; PURPOSE ARE DISCLAIMED.  IN NO EVENT SHALL MICROCHIP BE LIABLE FOR ANY DIRECT, INDIREC
      +                          T,
    63                           ; INCIDENTAL, SPECIAL, EXEMPLARY, OR CONSEQUENTIAL DAMAGES (INCLUDING BUT NOT LIMITED TO
    64                           ; PROCUREMENT OF SUBSTITUTE GOODS OR SERVICES; LOSS OF USE, DATA OR PROFITS; OR BUSINESS
    65                           ; INTERRUPTION) HOWSOEVER CAUSED AND ON ANY THEORY OF LIABILITY, WHETHER IN CONTRACT, ST
      +                          RICT
    66                           ; LIABILITY, OR TORT (INCLUDING NEGLIGENCE OR OTHERWISE) ARISING IN ANY WAY OUT OF THE U
      +                          SE OF
    67                           ; THIS SOFTWARE, EVEN IF ADVISED OF THE POSSIBILITY OF SUCH DAMAGE.
    68                           ; 
    69                           ; 
    70                           ; Code-generator required, PIC16F1719 Definitions
    71                           ; 
    72                           ; SFR Addresses
    73  0000                     	;# 
    74  0001                     	;# 
    75  0002                     	;# 
    76  0003                     	;# 
    77  0004                     	;# 
    78  0005                     	;# 
    79  0006                     	;# 
    80  0007                     	;# 
    81  0008                     	;# 
    82  0009                     	;# 
    83  000A                     	;# 
    84  000B                     	;# 
    85  000C                     	;# 
    86  000D                     	;# 
    87  000E                     	;# 
    88  000F                     	;# 
    89  0010                     	;# 
    90  0011                     	;# 
    91  0012                     	;# 
    92  0013                     	;# 
    93  0015                     	;# 
    94  0016                     	;# 
    95  0016                     	;# 
    96  0017                     	;# 
    97  0018                     	;# 
    98  0019                     	;# 
    99  001A                     	;# 
   100  001B                     	;# 
   101  001C                     	;# 
   102  008C                     	;# 
   103  008D                     	;# 
   104  008E                     	;# 
   105  008F                     	;# 
   106  0090                     	;# 
   107  0091                     	;# 
   108  0092                     	;# 
   109  0093                     	;# 
   110  0095                     	;# 
   111  0096                     	;# 
   112  0097                     	;# 
   113  0098                     	;# 
   114  0099                     	;# 
   115  009A                     	;# 
   116  009B                     	;# 
   117  009B                     	;# 
   118  009C                     	;# 
   119  009D                     	;# 
   120  009E                     	;# 
   121  009F                     	;# 
   122  010C                     	;# 
   123  010D                     	;# 
   124  010E                     	;# 
   125  010F                     	;# 
   126  0110                     	;# 
   127  0111                     	;# 
   128  0112                     	;# 
   129  0113                     	;# 
   130  0114                     	;# 
   131  0115                     	;# 
   132  0116                     	;# 
   133  0117                     	;# 
   134  0118                     	;# 
   135  0119                     	;# 
   136  011A                     	;# 
   137  011B                     	;# 
   138  011B                     	;# 
   139  011C                     	;# 
   140  018C                     	;# 
   141  018D                     	;# 
   142  018E                     	;# 
   143  018F                     	;# 
   144  0190                     	;# 
   145  0191                     	;# 
   146  0191                     	;# 
   147  0192                     	;# 
   148  0193                     	;# 
   149  0193                     	;# 
   150  0194                     	;# 
   151  0195                     	;# 
   152  0196                     	;# 
   153  0197                     	;# 
   154  0199                     	;# 
   155  0199                     	;# 
   156  0199                     	;# 
   157  019A                     	;# 
   158  019A                     	;# 
   159  019A                     	;# 
   160  019B                     	;# 
   161  019B                     	;# 
   162  019B                     	;# 
   163  019B                     	;# 
   164  019B                     	;# 
   165  019C                     	;# 
   166  019C                     	;# 
   167  019C                     	;# 
   168  019D                     	;# 
   169  019D                     	;# 
   170  019D                     	;# 
   171  019E                     	;# 
   172  019E                     	;# 
   173  019E                     	;# 
   174  019F                     	;# 
   175  019F                     	;# 
   176  019F                     	;# 
   177  019F                     	;# 
   178  019F                     	;# 
   179  020C                     	;# 
   180  020D                     	;# 
   181  020E                     	;# 
   182  020F                     	;# 
   183  0210                     	;# 
   184  0211                     	;# 
   185  0211                     	;# 
   186  0212                     	;# 
   187  0212                     	;# 
   188  0213                     	;# 
   189  0213                     	;# 
   190  0214                     	;# 
   191  0214                     	;# 
   192  0215                     	;# 
   193  0215                     	;# 
   194  0215                     	;# 
   195  0215                     	;# 
   196  0216                     	;# 
   197  0216                     	;# 
   198  0217                     	;# 
   199  0217                     	;# 
   200  028C                     	;# 
   201  028D                     	;# 
   202  028E                     	;# 
   203  028F                     	;# 
   204  0290                     	;# 
   205  0291                     	;# 
   206  0291                     	;# 
   207  0292                     	;# 
   208  0293                     	;# 
   209  0293                     	;# 
   210  0298                     	;# 
   211  0298                     	;# 
   212  0299                     	;# 
   213  029A                     	;# 
   214  029A                     	;# 
   215  029E                     	;# 
   216  030C                     	;# 
   217  030D                     	;# 
   218  030E                     	;# 
   219  030F                     	;# 
   220  0310                     	;# 
   221  038C                     	;# 
   222  038D                     	;# 
   223  038E                     	;# 
   224  038F                     	;# 
   225  0390                     	;# 
   226  0391                     	;# 
   227  0392                     	;# 
   228  0393                     	;# 
   229  0394                     	;# 
   230  0395                     	;# 
   231  0396                     	;# 
   232  0397                     	;# 
   233  0398                     	;# 
   234  0399                     	;# 
   235  039D                     	;# 
   236  039E                     	;# 
   237  039F                     	;# 
   238  0415                     	;# 
   239  0416                     	;# 
   240  0417                     	;# 
   241  041C                     	;# 
   242  041D                     	;# 
   243  041E                     	;# 
   244  0498                     	;# 
   245  0498                     	;# 
   246  0499                     	;# 
   247  049A                     	;# 
   248  049B                     	;# 
   249  049B                     	;# 
   250  049C                     	;# 
   251  049D                     	;# 
   252  049E                     	;# 
   253  049F                     	;# 
   254  0511                     	;# 
   255  0515                     	;# 
   256  0617                     	;# 
   257  0618                     	;# 
   258  0619                     	;# 
   259  0619                     	;# 
   260  061A                     	;# 
   261  061B                     	;# 
   262  061C                     	;# 
   263  061C                     	;# 
   264  0691                     	;# 
   265  0692                     	;# 
   266  0693                     	;# 
   267  0694                     	;# 
   268  0695                     	;# 
   269  0696                     	;# 
   270  0697                     	;# 
   271  0698                     	;# 
   272  0699                     	;# 
   273  069A                     	;# 
   274  069B                     	;# 
   275  069C                     	;# 
   276  069D                     	;# 
   277  069E                     	;# 
   278  069F                     	;# 
   279  0E0F                     	;# 
   280  0E10                     	;# 
   281  0E11                     	;# 
   282  0E12                     	;# 
   283  0E13                     	;# 
   284  0E14                     	;# 
   285  0E15                     	;# 
   286  0E17                     	;# 
   287  0E20                     	;# 
   288  0E21                     	;# 
   289  0E22                     	;# 
   290  0E24                     	;# 
   291  0E25                     	;# 
   292  0E28                     	;# 
   293  0E29                     	;# 
   294  0E2A                     	;# 
   295  0E2B                     	;# 
   296  0E90                     	;# 
   297  0E91                     	;# 
   298  0E92                     	;# 
   299  0E93                     	;# 
   300  0E94                     	;# 
   301  0E95                     	;# 
   302  0E96                     	;# 
   303  0E97                     	;# 
   304  0E98                     	;# 
   305  0E99                     	;# 
   306  0E9A                     	;# 
   307  0E9B                     	;# 
   308  0E9C                     	;# 
   309  0E9D                     	;# 
   310  0E9E                     	;# 
   311  0E9F                     	;# 
   312  0EA0                     	;# 
   313  0EA1                     	;# 
   314  0EA2                     	;# 
   315  0EA3                     	;# 
   316  0EA4                     	;# 
   317  0EA5                     	;# 
   318  0EA6                     	;# 
   319  0EA7                     	;# 
   320  0EA8                     	;# 
   321  0EA9                     	;# 
   322  0EAA                     	;# 
   323  0EAB                     	;# 
   324  0EAC                     	;# 
   325  0EAD                     	;# 
   326  0EAE                     	;# 
   327  0EAF                     	;# 
   328  0EB0                     	;# 
   329  0EB1                     	;# 
   330  0EB2                     	;# 
   331  0F0F                     	;# 
   332  0F10                     	;# 
   333  0F11                     	;# 
   334  0F12                     	;# 
   335  0F13                     	;# 
   336  0F14                     	;# 
   337  0F15                     	;# 
   338  0F16                     	;# 
   339  0F17                     	;# 
   340  0F18                     	;# 
   341  0F19                     	;# 
   342  0F1A                     	;# 
   343  0F1B                     	;# 
   344  0F1C                     	;# 
   345  0F1D                     	;# 
   346  0F1E                     	;# 
   347  0F1F                     	;# 
   348  0F20                     	;# 
   349  0F21                     	;# 
   350  0F22                     	;# 
   351  0F23                     	;# 
   352  0F24                     	;# 
   353  0F25                     	;# 
   354  0F26                     	;# 
   355  0F27                     	;# 
   356  0F28                     	;# 
   357  0F29                     	;# 
   358  0F2A                     	;# 
   359  0F2B                     	;# 
   360  0F2C                     	;# 
   361  0F2D                     	;# 
   362  0F2E                     	;# 
   363  0F2F                     	;# 
   364  0F30                     	;# 
   365  0F31                     	;# 
   366  0F32                     	;# 
   367  0F33                     	;# 
   368  0F34                     	;# 
   369  0F35                     	;# 
   370  0F36                     	;# 
   371  0F37                     	;# 
   372  0FE4                     	;# 
   373  0FE5                     	;# 
   374  0FE6                     	;# 
   375  0FE7                     	;# 
   376  0FE8                     	;# 
   377  0FE9                     	;# 
   378  0FEA                     	;# 
   379  0FEB                     	;# 
   380  0FED                     	;# 
   381  0FEE                     	;# 
   382  0FEF                     	;# 
   383  0000                     	;# 
   384  0001                     	;# 
   385  0002                     	;# 
   386  0003                     	;# 
   387  0004                     	;# 
   388  0005                     	;# 
   389  0006                     	;# 
   390  0007                     	;# 
   391  0008                     	;# 
   392  0009                     	;# 
   393  000A                     	;# 
   394  000B                     	;# 
   395  000C                     	;# 
   396  000D                     	;# 
   397  000E                     	;# 
   398  000F                     	;# 
   399  0010                     	;# 
   400  0011                     	;# 
   401  0012                     	;# 
   402  0013                     	;# 
   403  0015                     	;# 
   404  0016                     	;# 
   405  0016                     	;# 
   406  0017                     	;# 
   407  0018                     	;# 
   408  0019                     	;# 
   409  001A                     	;# 
   410  001B                     	;# 
   411  001C                     	;# 
   412  008C                     	;# 
   413  008D                     	;# 
   414  008E                     	;# 
   415  008F                     	;# 
   416  0090                     	;# 
   417  0091                     	;# 
   418  0092                     	;# 
   419  0093                     	;# 
   420  0095                     	;# 
   421  0096                     	;# 
   422  0097                     	;# 
   423  0098                     	;# 
   424  0099                     	;# 
   425  009A                     	;# 
   426  009B                     	;# 
   427  009B                     	;# 
   428  009C                     	;# 
   429  009D                     	;# 
   430  009E                     	;# 
   431  009F                     	;# 
   432  010C                     	;# 
   433  010D                     	;# 
   434  010E                     	;# 
   435  010F                     	;# 
   436  0110                     	;# 
   437  0111                     	;# 
   438  0112                     	;# 
   439  0113                     	;# 
   440  0114                     	;# 
   441  0115                     	;# 
   442  0116                     	;# 
   443  0117                     	;# 
   444  0118                     	;# 
   445  0119                     	;# 
   446  011A                     	;# 
   447  011B                     	;# 
   448  011B                     	;# 
   449  011C                     	;# 
   450  018C                     	;# 
   451  018D                     	;# 
   452  018E                     	;# 
   453  018F                     	;# 
   454  0190                     	;# 
   455  0191                     	;# 
   456  0191                     	;# 
   457  0192                     	;# 
   458  0193                     	;# 
   459  0193                     	;# 
   460  0194                     	;# 
   461  0195                     	;# 
   462  0196                     	;# 
   463  0197                     	;# 
   464  0199                     	;# 
   465  0199                     	;# 
   466  0199                     	;# 
   467  019A                     	;# 
   468  019A                     	;# 
   469  019A                     	;# 
   470  019B                     	;# 
   471  019B                     	;# 
   472  019B                     	;# 
   473  019B                     	;# 
   474  019B                     	;# 
   475  019C                     	;# 
   476  019C                     	;# 
   477  019C                     	;# 
   478  019D                     	;# 
   479  019D                     	;# 
   480  019D                     	;# 
   481  019E                     	;# 
   482  019E                     	;# 
   483  019E                     	;# 
   484  019F                     	;# 
   485  019F                     	;# 
   486  019F                     	;# 
   487  019F                     	;# 
   488  019F                     	;# 
   489  020C                     	;# 
   490  020D                     	;# 
   491  020E                     	;# 
   492  020F                     	;# 
   493  0210                     	;# 
   494  0211                     	;# 
   495  0211                     	;# 
   496  0212                     	;# 
   497  0212                     	;# 
   498  0213                     	;# 
   499  0213                     	;# 
   500  0214                     	;# 
   501  0214                     	;# 
   502  0215                     	;# 
   503  0215                     	;# 
   504  0215                     	;# 
   505  0215                     	;# 
   506  0216                     	;# 
   507  0216                     	;# 
   508  0217                     	;# 
   509  0217                     	;# 
   510  028C                     	;# 
   511  028D                     	;# 
   512  028E                     	;# 
   513  028F                     	;# 
   514  0290                     	;# 
   515  0291                     	;# 
   516  0291                     	;# 
   517  0292                     	;# 
   518  0293                     	;# 
   519  0293                     	;# 
   520  0298                     	;# 
   521  0298                     	;# 
   522  0299                     	;# 
   523  029A                     	;# 
   524  029A                     	;# 
   525  029E                     	;# 
   526  030C                     	;# 
   527  030D                     	;# 
   528  030E                     	;# 
   529  030F                     	;# 
   530  0310                     	;# 
   531  038C                     	;# 
   532  038D                     	;# 
   533  038E                     	;# 
   534  038F                     	;# 
   535  0390                     	;# 
   536  0391                     	;# 
   537  0392                     	;# 
   538  0393                     	;# 
   539  0394                     	;# 
   540  0395                     	;# 
   541  0396                     	;# 
   542  0397                     	;# 
   543  0398                     	;# 
   544  0399                     	;# 
   545  039D                     	;# 
   546  039E                     	;# 
   547  039F                     	;# 
   548  0415                     	;# 
   549  0416                     	;# 
   550  0417                     	;# 
   551  041C                     	;# 
   552  041D                     	;# 
   553  041E                     	;# 
   554  0498                     	;# 
   555  0498                     	;# 
   556  0499                     	;# 
   557  049A                     	;# 
   558  049B                     	;# 
   559  049B                     	;# 
   560  049C                     	;# 
   561  049D                     	;# 
   562  049E                     	;# 
   563  049F                     	;# 
   564  0511                     	;# 
   565  0515                     	;# 
   566  0617                     	;# 
   567  0618                     	;# 
   568  0619                     	;# 
   569  0619                     	;# 
   570  061A                     	;# 
   571  061B                     	;# 
   572  061C                     	;# 
   573  061C                     	;# 
   574  0691                     	;# 
   575  0692                     	;# 
   576  0693                     	;# 
   577  0694                     	;# 
   578  0695                     	;# 
   579  0696                     	;# 
   580  0697                     	;# 
   581  0698                     	;# 
   582  0699                     	;# 
   583  069A                     	;# 
   584  069B                     	;# 
   585  069C                     	;# 
   586  069D                     	;# 
   587  069E                     	;# 
   588  069F                     	;# 
   589  0E0F                     	;# 
   590  0E10                     	;# 
   591  0E11                     	;# 
   592  0E12                     	;# 
   593  0E13                     	;# 
   594  0E14                     	;# 
   595  0E15                     	;# 
   596  0E17                     	;# 
   597  0E20                     	;# 
   598  0E21                     	;# 
   599  0E22                     	;# 
   600  0E24                     	;# 
   601  0E25                     	;# 
   602  0E28                     	;# 
   603  0E29                     	;# 
   604  0E2A                     	;# 
   605  0E2B                     	;# 
   606  0E90                     	;# 
   607  0E91                     	;# 
   608  0E92                     	;# 
   609  0E93                     	;# 
   610  0E94                     	;# 
   611  0E95                     	;# 
   612  0E96                     	;# 
   613  0E97                     	;# 
   614  0E98                     	;# 
   615  0E99                     	;# 
   616  0E9A                     	;# 
   617  0E9B                     	;# 
   618  0E9C                     	;# 
   619  0E9D                     	;# 
   620  0E9E                     	;# 
   621  0E9F                     	;# 
   622  0EA0                     	;# 
   623  0EA1                     	;# 
   624  0EA2                     	;# 
   625  0EA3                     	;# 
   626  0EA4                     	;# 
   627  0EA5                     	;# 
   628  0EA6                     	;# 
   629  0EA7                     	;# 
   630  0EA8                     	;# 
   631  0EA9                     	;# 
   632  0EAA                     	;# 
   633  0EAB                     	;# 
   634  0EAC                     	;# 
   635  0EAD                     	;# 
   636  0EAE                     	;# 
   637  0EAF                     	;# 
   638  0EB0                     	;# 
   639  0EB1                     	;# 
   640  0EB2                     	;# 
   641  0F0F                     	;# 
   642  0F10                     	;# 
   643  0F11                     	;# 
   644  0F12                     	;# 
   645  0F13                     	;# 
   646  0F14                     	;# 
   647  0F15                     	;# 
   648  0F16                     	;# 
   649  0F17                     	;# 
   650  0F18                     	;# 
   651  0F19                     	;# 
   652  0F1A                     	;# 
   653  0F1B                     	;# 
   654  0F1C                     	;# 
   655  0F1D                     	;# 
   656  0F1E                     	;# 
   657  0F1F                     	;# 
   658  0F20                     	;# 
   659  0F21                     	;# 
   660  0F22                     	;# 
   661  0F23                     	;# 
   662  0F24                     	;# 
   663  0F25                     	;# 
   664  0F26                     	;# 
   665  0F27                     	;# 
   666  0F28                     	;# 
   667  0F29                     	;# 
   668  0F2A                     	;# 
   669  0F2B                     	;# 
   670  0F2C                     	;# 
   671  0F2D                     	;# 
   672  0F2E                     	;# 
   673  0F2F                     	;# 
   674  0F30                     	;# 
   675  0F31                     	;# 
   676  0F32                     	;# 
   677  0F33                     	;# 
   678  0F34                     	;# 
   679  0F35                     	;# 
   680  0F36                     	;# 
   681  0F37                     	;# 
   682  0FE4                     	;# 
   683  0FE5                     	;# 
   684  0FE6                     	;# 
   685  0FE7                     	;# 
   686  0FE8                     	;# 
   687  0FE9                     	;# 
   688  0FEA                     	;# 
   689  0FEB                     	;# 
   690  0FED                     	;# 
   691  0FEE                     	;# 
   692  0FEF                     	;# 
   693  0000                     	;# 
   694  0001                     	;# 
   695  0002                     	;# 
   696  0003                     	;# 
   697  0004                     	;# 
   698  0005                     	;# 
   699  0006                     	;# 
   700  0007                     	;# 
   701  0008                     	;# 
   702  0009                     	;# 
   703  000A                     	;# 
   704  000B                     	;# 
   705  000C                     	;# 
   706  000D                     	;# 
   707  000E                     	;# 
   708  000F                     	;# 
   709  0010                     	;# 
   710  0011                     	;# 
   711  0012                     	;# 
   712  0013                     	;# 
   713  0015                     	;# 
   714  0016                     	;# 
   715  0016                     	;# 
   716  0017                     	;# 
   717  0018                     	;# 
   718  0019                     	;# 
   719  001A                     	;# 
   720  001B                     	;# 
   721  001C                     	;# 
   722  008C                     	;# 
   723  008D                     	;# 
   724  008E                     	;# 
   725  008F                     	;# 
   726  0090                     	;# 
   727  0091                     	;# 
   728  0092                     	;# 
   729  0093                     	;# 
   730  0095                     	;# 
   731  0096                     	;# 
   732  0097                     	;# 
   733  0098                     	;# 
   734  0099                     	;# 
   735  009A                     	;# 
   736  009B                     	;# 
   737  009B                     	;# 
   738  009C                     	;# 
   739  009D                     	;# 
   740  009E                     	;# 
   741  009F                     	;# 
   742  010C                     	;# 
   743  010D                     	;# 
   744  010E                     	;# 
   745  010F                     	;# 
   746  0110                     	;# 
   747  0111                     	;# 
   748  0112                     	;# 
   749  0113                     	;# 
   750  0114                     	;# 
   751  0115                     	;# 
   752  0116                     	;# 
   753  0117                     	;# 
   754  0118                     	;# 
   755  0119                     	;# 
   756  011A                     	;# 
   757  011B                     	;# 
   758  011B                     	;# 
   759  011C                     	;# 
   760  018C                     	;# 
   761  018D                     	;# 
   762  018E                     	;# 
   763  018F                     	;# 
   764  0190                     	;# 
   765  0191                     	;# 
   766  0191                     	;# 
   767  0192                     	;# 
   768  0193                     	;# 
   769  0193                     	;# 
   770  0194                     	;# 
   771  0195                     	;# 
   772  0196                     	;# 
   773  0197                     	;# 
   774  0199                     	;# 
   775  0199                     	;# 
   776  0199                     	;# 
   777  019A                     	;# 
   778  019A                     	;# 
   779  019A                     	;# 
   780  019B                     	;# 
   781  019B                     	;# 
   782  019B                     	;# 
   783  019B                     	;# 
   784  019B                     	;# 
   785  019C                     	;# 
   786  019C                     	;# 
   787  019C                     	;# 
   788  019D                     	;# 
   789  019D                     	;# 
   790  019D                     	;# 
   791  019E                     	;# 
   792  019E                     	;# 
   793  019E                     	;# 
   794  019F                     	;# 
   795  019F                     	;# 
   796  019F                     	;# 
   797  019F                     	;# 
   798  019F                     	;# 
   799  020C                     	;# 
   800  020D                     	;# 
   801  020E                     	;# 
   802  020F                     	;# 
   803  0210                     	;# 
   804  0211                     	;# 
   805  0211                     	;# 
   806  0212                     	;# 
   807  0212                     	;# 
   808  0213                     	;# 
   809  0213                     	;# 
   810  0214                     	;# 
   811  0214                     	;# 
   812  0215                     	;# 
   813  0215                     	;# 
   814  0215                     	;# 
   815  0215                     	;# 
   816  0216                     	;# 
   817  0216                     	;# 
   818  0217                     	;# 
   819  0217                     	;# 
   820  028C                     	;# 
   821  028D                     	;# 
   822  028E                     	;# 
   823  028F                     	;# 
   824  0290                     	;# 
   825  0291                     	;# 
   826  0291                     	;# 
   827  0292                     	;# 
   828  0293                     	;# 
   829  0293                     	;# 
   830  0298                     	;# 
   831  0298                     	;# 
   832  0299                     	;# 
   833  029A                     	;# 
   834  029A                     	;# 
   835  029E                     	;# 
   836  030C                     	;# 
   837  030D                     	;# 
   838  030E                     	;# 
   839  030F                     	;# 
   840  0310                     	;# 
   841  038C                     	;# 
   842  038D                     	;# 
   843  038E                     	;# 
   844  038F                     	;# 
   845  0390                     	;# 
   846  0391                     	;# 
   847  0392                     	;# 
   848  0393                     	;# 
   849  0394                     	;# 
   850  0395                     	;# 
   851  0396                     	;# 
   852  0397                     	;# 
   853  0398                     	;# 
   854  0399                     	;# 
   855  039D                     	;# 
   856  039E                     	;# 
   857  039F                     	;# 
   858  0415                     	;# 
   859  0416                     	;# 
   860  0417                     	;# 
   861  041C                     	;# 
   862  041D                     	;# 
   863  041E                     	;# 
   864  0498                     	;# 
   865  0498                     	;# 
   866  0499                     	;# 
   867  049A                     	;# 
   868  049B                     	;# 
   869  049B                     	;# 
   870  049C                     	;# 
   871  049D                     	;# 
   872  049E                     	;# 
   873  049F                     	;# 
   874  0511                     	;# 
   875  0515                     	;# 
   876  0617                     	;# 
   877  0618                     	;# 
   878  0619                     	;# 
   879  0619                     	;# 
   880  061A                     	;# 
   881  061B                     	;# 
   882  061C                     	;# 
   883  061C                     	;# 
   884  0691                     	;# 
   885  0692                     	;# 
   886  0693                     	;# 
   887  0694                     	;# 
   888  0695                     	;# 
   889  0696                     	;# 
   890  0697                     	;# 
   891  0698                     	;# 
   892  0699                     	;# 
   893  069A                     	;# 
   894  069B                     	;# 
   895  069C                     	;# 
   896  069D                     	;# 
   897  069E                     	;# 
   898  069F                     	;# 
   899  0E0F                     	;# 
   900  0E10                     	;# 
   901  0E11                     	;# 
   902  0E12                     	;# 
   903  0E13                     	;# 
   904  0E14                     	;# 
   905  0E15                     	;# 
   906  0E17                     	;# 
   907  0E20                     	;# 
   908  0E21                     	;# 
   909  0E22                     	;# 
   910  0E24                     	;# 
   911  0E25                     	;# 
   912  0E28                     	;# 
   913  0E29                     	;# 
   914  0E2A                     	;# 
   915  0E2B                     	;# 
   916  0E90                     	;# 
   917  0E91                     	;# 
   918  0E92                     	;# 
   919  0E93                     	;# 
   920  0E94                     	;# 
   921  0E95                     	;# 
   922  0E96                     	;# 
   923  0E97                     	;# 
   924  0E98                     	;# 
   925  0E99                     	;# 
   926  0E9A                     	;# 
   927  0E9B                     	;# 
   928  0E9C                     	;# 
   929  0E9D                     	;# 
   930  0E9E                     	;# 
   931  0E9F                     	;# 
   932  0EA0                     	;# 
   933  0EA1                     	;# 
   934  0EA2                     	;# 
   935  0EA3                     	;# 
   936  0EA4                     	;# 
   937  0EA5                     	;# 
   938  0EA6                     	;# 
   939  0EA7                     	;# 
   940  0EA8                     	;# 
   941  0EA9                     	;# 
   942  0EAA                     	;# 
   943  0EAB                     	;# 
   944  0EAC                     	;# 
   945  0EAD                     	;# 
   946  0EAE                     	;# 
   947  0EAF                     	;# 
   948  0EB0                     	;# 
   949  0EB1                     	;# 
   950  0EB2                     	;# 
   951  0F0F                     	;# 
   952  0F10                     	;# 
   953  0F11                     	;# 
   954  0F12                     	;# 
   955  0F13                     	;# 
   956  0F14                     	;# 
   957  0F15                     	;# 
   958  0F16                     	;# 
   959  0F17                     	;# 
   960  0F18                     	;# 
   961  0F19                     	;# 
   962  0F1A                     	;# 
   963  0F1B                     	;# 
   964  0F1C                     	;# 
   965  0F1D                     	;# 
   966  0F1E                     	;# 
   967  0F1F                     	;# 
   968  0F20                     	;# 
   969  0F21                     	;# 
   970  0F22                     	;# 
   971  0F23                     	;# 
   972  0F24                     	;# 
   973  0F25                     	;# 
   974  0F26                     	;# 
   975  0F27                     	;# 
   976  0F28                     	;# 
   977  0F29                     	;# 
   978  0F2A                     	;# 
   979  0F2B                     	;# 
   980  0F2C                     	;# 
   981  0F2D                     	;# 
   982  0F2E                     	;# 
   983  0F2F                     	;# 
   984  0F30                     	;# 
   985  0F31                     	;# 
   986  0F32                     	;# 
   987  0F33                     	;# 
   988  0F34                     	;# 
   989  0F35                     	;# 
   990  0F36                     	;# 
   991  0F37                     	;# 
   992  0FE4                     	;# 
   993  0FE5                     	;# 
   994  0FE6                     	;# 
   995  0FE7                     	;# 
   996  0FE8                     	;# 
   997  0FE9                     	;# 
   998  0FEA                     	;# 
   999  0FEB                     	;# 
  1000  0FED                     	;# 
  1001  0FEE                     	;# 
  1002  0FEF                     	;# 
  1003  0000                     	;# 
  1004  0001                     	;# 
  1005  0002                     	;# 
  1006  0003                     	;# 
  1007  0004                     	;# 
  1008  0005                     	;# 
  1009  0006                     	;# 
  1010  0007                     	;# 
  1011  0008                     	;# 
  1012  0009                     	;# 
  1013  000A                     	;# 
  1014  000B                     	;# 
  1015  000C                     	;# 
  1016  000D                     	;# 
  1017  000E                     	;# 
  1018  000F                     	;# 
  1019  0010                     	;# 
  1020  0011                     	;# 
  1021  0012                     	;# 
  1022  0013                     	;# 
  1023  0015                     	;# 
  1024  0016                     	;# 
  1025  0016                     	;# 
  1026  0017                     	;# 
  1027  0018                     	;# 
  1028  0019                     	;# 
  1029  001A                     	;# 
  1030  001B                     	;# 
  1031  001C                     	;# 
  1032  008C                     	;# 
  1033  008D                     	;# 
  1034  008E                     	;# 
  1035  008F                     	;# 
  1036  0090                     	;# 
  1037  0091                     	;# 
  1038  0092                     	;# 
  1039  0093                     	;# 
  1040  0095                     	;# 
  1041  0096                     	;# 
  1042  0097                     	;# 
  1043  0098                     	;# 
  1044  0099                     	;# 
  1045  009A                     	;# 
  1046  009B                     	;# 
  1047  009B                     	;# 
  1048  009C                     	;# 
  1049  009D                     	;# 
  1050  009E                     	;# 
  1051  009F                     	;# 
  1052  010C                     	;# 
  1053  010D                     	;# 
  1054  010E                     	;# 
  1055  010F                     	;# 
  1056  0110                     	;# 
  1057  0111                     	;# 
  1058  0112                     	;# 
  1059  0113                     	;# 
  1060  0114                     	;# 
  1061  0115                     	;# 
  1062  0116                     	;# 
  1063  0117                     	;# 
  1064  0118                     	;# 
  1065  0119                     	;# 
  1066  011A                     	;# 
  1067  011B                     	;# 
  1068  011B                     	;# 
  1069  011C                     	;# 
  1070  018C                     	;# 
  1071  018D                     	;# 
  1072  018E                     	;# 
  1073  018F                     	;# 
  1074  0190                     	;# 
  1075  0191                     	;# 
  1076  0191                     	;# 
  1077  0192                     	;# 
  1078  0193                     	;# 
  1079  0193                     	;# 
  1080  0194                     	;# 
  1081  0195                     	;# 
  1082  0196                     	;# 
  1083  0197                     	;# 
  1084  0199                     	;# 
  1085  0199                     	;# 
  1086  0199                     	;# 
  1087  019A                     	;# 
  1088  019A                     	;# 
  1089  019A                     	;# 
  1090  019B                     	;# 
  1091  019B                     	;# 
  1092  019B                     	;# 
  1093  019B                     	;# 
  1094  019B                     	;# 
  1095  019C                     	;# 
  1096  019C                     	;# 
  1097  019C                     	;# 
  1098  019D                     	;# 
  1099  019D                     	;# 
  1100  019D                     	;# 
  1101  019E                     	;# 
  1102  019E                     	;# 
  1103  019E                     	;# 
  1104  019F                     	;# 
  1105  019F                     	;# 
  1106  019F                     	;# 
  1107  019F                     	;# 
  1108  019F                     	;# 
  1109  020C                     	;# 
  1110  020D                     	;# 
  1111  020E                     	;# 
  1112  020F                     	;# 
  1113  0210                     	;# 
  1114  0211                     	;# 
  1115  0211                     	;# 
  1116  0212                     	;# 
  1117  0212                     	;# 
  1118  0213                     	;# 
  1119  0213                     	;# 
  1120  0214                     	;# 
  1121  0214                     	;# 
  1122  0215                     	;# 
  1123  0215                     	;# 
  1124  0215                     	;# 
  1125  0215                     	;# 
  1126  0216                     	;# 
  1127  0216                     	;# 
  1128  0217                     	;# 
  1129  0217                     	;# 
  1130  028C                     	;# 
  1131  028D                     	;# 
  1132  028E                     	;# 
  1133  028F                     	;# 
  1134  0290                     	;# 
  1135  0291                     	;# 
  1136  0291                     	;# 
  1137  0292                     	;# 
  1138  0293                     	;# 
  1139  0293                     	;# 
  1140  0298                     	;# 
  1141  0298                     	;# 
  1142  0299                     	;# 
  1143  029A                     	;# 
  1144  029A                     	;# 
  1145  029E                     	;# 
  1146  030C                     	;# 
  1147  030D                     	;# 
  1148  030E                     	;# 
  1149  030F                     	;# 
  1150  0310                     	;# 
  1151  038C                     	;# 
  1152  038D                     	;# 
  1153  038E                     	;# 
  1154  038F                     	;# 
  1155  0390                     	;# 
  1156  0391                     	;# 
  1157  0392                     	;# 
  1158  0393                     	;# 
  1159  0394                     	;# 
  1160  0395                     	;# 
  1161  0396                     	;# 
  1162  0397                     	;# 
  1163  0398                     	;# 
  1164  0399                     	;# 
  1165  039D                     	;# 
  1166  039E                     	;# 
  1167  039F                     	;# 
  1168  0415                     	;# 
  1169  0416                     	;# 
  1170  0417                     	;# 
  1171  041C                     	;# 
  1172  041D                     	;# 
  1173  041E                     	;# 
  1174  0498                     	;# 
  1175  0498                     	;# 
  1176  0499                     	;# 
  1177  049A                     	;# 
  1178  049B                     	;# 
  1179  049B                     	;# 
  1180  049C                     	;# 
  1181  049D                     	;# 
  1182  049E                     	;# 
  1183  049F                     	;# 
  1184  0511                     	;# 
  1185  0515                     	;# 
  1186  0617                     	;# 
  1187  0618                     	;# 
  1188  0619                     	;# 
  1189  0619                     	;# 
  1190  061A                     	;# 
  1191  061B                     	;# 
  1192  061C                     	;# 
  1193  061C                     	;# 
  1194  0691                     	;# 
  1195  0692                     	;# 
  1196  0693                     	;# 
  1197  0694                     	;# 
  1198  0695                     	;# 
  1199  0696                     	;# 
  1200  0697                     	;# 
  1201  0698                     	;# 
  1202  0699                     	;# 
  1203  069A                     	;# 
  1204  069B                     	;# 
  1205  069C                     	;# 
  1206  069D                     	;# 
  1207  069E                     	;# 
  1208  069F                     	;# 
  1209  0E0F                     	;# 
  1210  0E10                     	;# 
  1211  0E11                     	;# 
  1212  0E12                     	;# 
  1213  0E13                     	;# 
  1214  0E14                     	;# 
  1215  0E15                     	;# 
  1216  0E17                     	;# 
  1217  0E20                     	;# 
  1218  0E21                     	;# 
  1219  0E22                     	;# 
  1220  0E24                     	;# 
  1221  0E25                     	;# 
  1222  0E28                     	;# 
  1223  0E29                     	;# 
  1224  0E2A                     	;# 
  1225  0E2B                     	;# 
  1226  0E90                     	;# 
  1227  0E91                     	;# 
  1228  0E92                     	;# 
  1229  0E93                     	;# 
  1230  0E94                     	;# 
  1231  0E95                     	;# 
  1232  0E96                     	;# 
  1233  0E97                     	;# 
  1234  0E98                     	;# 
  1235  0E99                     	;# 
  1236  0E9A                     	;# 
  1237  0E9B                     	;# 
  1238  0E9C                     	;# 
  1239  0E9D                     	;# 
  1240  0E9E                     	;# 
  1241  0E9F                     	;# 
  1242  0EA0                     	;# 
  1243  0EA1                     	;# 
  1244  0EA2                     	;# 
  1245  0EA3                     	;# 
  1246  0EA4                     	;# 
  1247  0EA5                     	;# 
  1248  0EA6                     	;# 
  1249  0EA7                     	;# 
  1250  0EA8                     	;# 
  1251  0EA9                     	;# 
  1252  0EAA                     	;# 
  1253  0EAB                     	;# 
  1254  0EAC                     	;# 
  1255  0EAD                     	;# 
  1256  0EAE                     	;# 
  1257  0EAF                     	;# 
  1258  0EB0                     	;# 
  1259  0EB1                     	;# 
  1260  0EB2                     	;# 
  1261  0F0F                     	;# 
  1262  0F10                     	;# 
  1263  0F11                     	;# 
  1264  0F12                     	;# 
  1265  0F13                     	;# 
  1266  0F14                     	;# 
  1267  0F15                     	;# 
  1268  0F16                     	;# 
  1269  0F17                     	;# 
  1270  0F18                     	;# 
  1271  0F19                     	;# 
  1272  0F1A                     	;# 
  1273  0F1B                     	;# 
  1274  0F1C                     	;# 
  1275  0F1D                     	;# 
  1276  0F1E                     	;# 
  1277  0F1F                     	;# 
  1278  0F20                     	;# 
  1279  0F21                     	;# 
  1280  0F22                     	;# 
  1281  0F23                     	;# 
  1282  0F24                     	;# 
  1283  0F25                     	;# 
  1284  0F26                     	;# 
  1285  0F27                     	;# 
  1286  0F28                     	;# 
  1287  0F29                     	;# 
  1288  0F2A                     	;# 
  1289  0F2B                     	;# 
  1290  0F2C                     	;# 
  1291  0F2D                     	;# 
  1292  0F2E                     	;# 
  1293  0F2F                     	;# 
  1294  0F30                     	;# 
  1295  0F31                     	;# 
  1296  0F32                     	;# 
  1297  0F33                     	;# 
  1298  0F34                     	;# 
  1299  0F35                     	;# 
  1300  0F36                     	;# 
  1301  0F37                     	;# 
  1302  0FE4                     	;# 
  1303  0FE5                     	;# 
  1304  0FE6                     	;# 
  1305  0FE7                     	;# 
  1306  0FE8                     	;# 
  1307  0FE9                     	;# 
  1308  0FEA                     	;# 
  1309  0FEB                     	;# 
  1310  0FED                     	;# 
  1311  0FEE                     	;# 
  1312  0FEF                     	;# 
  1313  0000                     	;# 
  1314  0001                     	;# 
  1315  0002                     	;# 
  1316  0003                     	;# 
  1317  0004                     	;# 
  1318  0005                     	;# 
  1319  0006                     	;# 
  1320  0007                     	;# 
  1321  0008                     	;# 
  1322  0009                     	;# 
  1323  000A                     	;# 
  1324  000B                     	;# 
  1325  000C                     	;# 
  1326  000D                     	;# 
  1327  000E                     	;# 
  1328  000F                     	;# 
  1329  0010                     	;# 
  1330  0011                     	;# 
  1331  0012                     	;# 
  1332  0013                     	;# 
  1333  0015                     	;# 
  1334  0016                     	;# 
  1335  0016                     	;# 
  1336  0017                     	;# 
  1337  0018                     	;# 
  1338  0019                     	;# 
  1339  001A                     	;# 
  1340  001B                     	;# 
  1341  001C                     	;# 
  1342  008C                     	;# 
  1343  008D                     	;# 
  1344  008E                     	;# 
  1345  008F                     	;# 
  1346  0090                     	;# 
  1347  0091                     	;# 
  1348  0092                     	;# 
  1349  0093                     	;# 
  1350  0095                     	;# 
  1351  0096                     	;# 
  1352  0097                     	;# 
  1353  0098                     	;# 
  1354  0099                     	;# 
  1355  009A                     	;# 
  1356  009B                     	;# 
  1357  009B                     	;# 
  1358  009C                     	;# 
  1359  009D                     	;# 
  1360  009E                     	;# 
  1361  009F                     	;# 
  1362  010C                     	;# 
  1363  010D                     	;# 
  1364  010E                     	;# 
  1365  010F                     	;# 
  1366  0110                     	;# 
  1367  0111                     	;# 
  1368  0112                     	;# 
  1369  0113                     	;# 
  1370  0114                     	;# 
  1371  0115                     	;# 
  1372  0116                     	;# 
  1373  0117                     	;# 
  1374  0118                     	;# 
  1375  0119                     	;# 
  1376  011A                     	;# 
  1377  011B                     	;# 
  1378  011B                     	;# 
  1379  011C                     	;# 
  1380  018C                     	;# 
  1381  018D                     	;# 
  1382  018E                     	;# 
  1383  018F                     	;# 
  1384  0190                     	;# 
  1385  0191                     	;# 
  1386  0191                     	;# 
  1387  0192                     	;# 
  1388  0193                     	;# 
  1389  0193                     	;# 
  1390  0194                     	;# 
  1391  0195                     	;# 
  1392  0196                     	;# 
  1393  0197                     	;# 
  1394  0199                     	;# 
  1395  0199                     	;# 
  1396  0199                     	;# 
  1397  019A                     	;# 
  1398  019A                     	;# 
  1399  019A                     	;# 
  1400  019B                     	;# 
  1401  019B                     	;# 
  1402  019B                     	;# 
  1403  019B                     	;# 
  1404  019B                     	;# 
  1405  019C                     	;# 
  1406  019C                     	;# 
  1407  019C                     	;# 
  1408  019D                     	;# 
  1409  019D                     	;# 
  1410  019D                     	;# 
  1411  019E                     	;# 
  1412  019E                     	;# 
  1413  019E                     	;# 
  1414  019F                     	;# 
  1415  019F                     	;# 
  1416  019F                     	;# 
  1417  019F                     	;# 
  1418  019F                     	;# 
  1419  020C                     	;# 
  1420  020D                     	;# 
  1421  020E                     	;# 
  1422  020F                     	;# 
  1423  0210                     	;# 
  1424  0211                     	;# 
  1425  0211                     	;# 
  1426  0212                     	;# 
  1427  0212                     	;# 
  1428  0213                     	;# 
  1429  0213                     	;# 
  1430  0214                     	;# 
  1431  0214                     	;# 
  1432  0215                     	;# 
  1433  0215                     	;# 
  1434  0215                     	;# 
  1435  0215                     	;# 
  1436  0216                     	;# 
  1437  0216                     	;# 
  1438  0217                     	;# 
  1439  0217                     	;# 
  1440  028C                     	;# 
  1441  028D                     	;# 
  1442  028E                     	;# 
  1443  028F                     	;# 
  1444  0290                     	;# 
  1445  0291                     	;# 
  1446  0291                     	;# 
  1447  0292                     	;# 
  1448  0293                     	;# 
  1449  0293                     	;# 
  1450  0298                     	;# 
  1451  0298                     	;# 
  1452  0299                     	;# 
  1453  029A                     	;# 
  1454  029A                     	;# 
  1455  029E                     	;# 
  1456  030C                     	;# 
  1457  030D                     	;# 
  1458  030E                     	;# 
  1459  030F                     	;# 
  1460  0310                     	;# 
  1461  038C                     	;# 
  1462  038D                     	;# 
  1463  038E                     	;# 
  1464  038F                     	;# 
  1465  0390                     	;# 
  1466  0391                     	;# 
  1467  0392                     	;# 
  1468  0393                     	;# 
  1469  0394                     	;# 
  1470  0395                     	;# 
  1471  0396                     	;# 
  1472  0397                     	;# 
  1473  0398                     	;# 
  1474  0399                     	;# 
  1475  039D                     	;# 
  1476  039E                     	;# 
  1477  039F                     	;# 
  1478  0415                     	;# 
  1479  0416                     	;# 
  1480  0417                     	;# 
  1481  041C                     	;# 
  1482  041D                     	;# 
  1483  041E                     	;# 
  1484  0498                     	;# 
  1485  0498                     	;# 
  1486  0499                     	;# 
  1487  049A                     	;# 
  1488  049B                     	;# 
  1489  049B                     	;# 
  1490  049C                     	;# 
  1491  049D                     	;# 
  1492  049E                     	;# 
  1493  049F                     	;# 
  1494  0511                     	;# 
  1495  0515                     	;# 
  1496  0617                     	;# 
  1497  0618                     	;# 
  1498  0619                     	;# 
  1499  0619                     	;# 
  1500  061A                     	;# 
  1501  061B                     	;# 
  1502  061C                     	;# 
  1503  061C                     	;# 
  1504  0691                     	;# 
  1505  0692                     	;# 
  1506  0693                     	;# 
  1507  0694                     	;# 
  1508  0695                     	;# 
  1509  0696                     	;# 
  1510  0697                     	;# 
  1511  0698                     	;# 
  1512  0699                     	;# 
  1513  069A                     	;# 
  1514  069B                     	;# 
  1515  069C                     	;# 
  1516  069D                     	;# 
  1517  069E                     	;# 
  1518  069F                     	;# 
  1519  0E0F                     	;# 
  1520  0E10                     	;# 
  1521  0E11                     	;# 
  1522  0E12                     	;# 
  1523  0E13                     	;# 
  1524  0E14                     	;# 
  1525  0E15                     	;# 
  1526  0E17                     	;# 
  1527  0E20                     	;# 
  1528  0E21                     	;# 
  1529  0E22                     	;# 
  1530  0E24                     	;# 
  1531  0E25                     	;# 
  1532  0E28                     	;# 
  1533  0E29                     	;# 
  1534  0E2A                     	;# 
  1535  0E2B                     	;# 
  1536  0E90                     	;# 
  1537  0E91                     	;# 
  1538  0E92                     	;# 
  1539  0E93                     	;# 
  1540  0E94                     	;# 
  1541  0E95                     	;# 
  1542  0E96                     	;# 
  1543  0E97                     	;# 
  1544  0E98                     	;# 
  1545  0E99                     	;# 
  1546  0E9A                     	;# 
  1547  0E9B                     	;# 
  1548  0E9C                     	;# 
  1549  0E9D                     	;# 
  1550  0E9E                     	;# 
  1551  0E9F                     	;# 
  1552  0EA0                     	;# 
  1553  0EA1                     	;# 
  1554  0EA2                     	;# 
  1555  0EA3                     	;# 
  1556  0EA4                     	;# 
  1557  0EA5                     	;# 
  1558  0EA6                     	;# 
  1559  0EA7                     	;# 
  1560  0EA8                     	;# 
  1561  0EA9                     	;# 
  1562  0EAA                     	;# 
  1563  0EAB                     	;# 
  1564  0EAC                     	;# 
  1565  0EAD                     	;# 
  1566  0EAE                     	;# 
  1567  0EAF                     	;# 
  1568  0EB0                     	;# 
  1569  0EB1                     	;# 
  1570  0EB2                     	;# 
  1571  0F0F                     	;# 
  1572  0F10                     	;# 
  1573  0F11                     	;# 
  1574  0F12                     	;# 
  1575  0F13                     	;# 
  1576  0F14                     	;# 
  1577  0F15                     	;# 
  1578  0F16                     	;# 
  1579  0F17                     	;# 
  1580  0F18                     	;# 
  1581  0F19                     	;# 
  1582  0F1A                     	;# 
  1583  0F1B                     	;# 
  1584  0F1C                     	;# 
  1585  0F1D                     	;# 
  1586  0F1E                     	;# 
  1587  0F1F                     	;# 
  1588  0F20                     	;# 
  1589  0F21                     	;# 
  1590  0F22                     	;# 
  1591  0F23                     	;# 
  1592  0F24                     	;# 
  1593  0F25                     	;# 
  1594  0F26                     	;# 
  1595  0F27                     	;# 
  1596  0F28                     	;# 
  1597  0F29                     	;# 
  1598  0F2A                     	;# 
  1599  0F2B                     	;# 
  1600  0F2C                     	;# 
  1601  0F2D                     	;# 
  1602  0F2E                     	;# 
  1603  0F2F                     	;# 
  1604  0F30                     	;# 
  1605  0F31                     	;# 
  1606  0F32                     	;# 
  1607  0F33                     	;# 
  1608  0F34                     	;# 
  1609  0F35                     	;# 
  1610  0F36                     	;# 
  1611  0F37                     	;# 
  1612  0FE4                     	;# 
  1613  0FE5                     	;# 
  1614  0FE6                     	;# 
  1615  0FE7                     	;# 
  1616  0FE8                     	;# 
  1617  0FE9                     	;# 
  1618  0FEA                     	;# 
  1619  0FEB                     	;# 
  1620  0FED                     	;# 
  1621  0FEE                     	;# 
  1622  0FEF                     	;# 
  1623  0000                     	;# 
  1624  0001                     	;# 
  1625  0002                     	;# 
  1626  0003                     	;# 
  1627  0004                     	;# 
  1628  0005                     	;# 
  1629  0006                     	;# 
  1630  0007                     	;# 
  1631  0008                     	;# 
  1632  0009                     	;# 
  1633  000A                     	;# 
  1634  000B                     	;# 
  1635  000C                     	;# 
  1636  000D                     	;# 
  1637  000E                     	;# 
  1638  000F                     	;# 
  1639  0010                     	;# 
  1640  0011                     	;# 
  1641  0012                     	;# 
  1642  0013                     	;# 
  1643  0015                     	;# 
  1644  0016                     	;# 
  1645  0016                     	;# 
  1646  0017                     	;# 
  1647  0018                     	;# 
  1648  0019                     	;# 
  1649  001A                     	;# 
  1650  001B                     	;# 
  1651  001C                     	;# 
  1652  008C                     	;# 
  1653  008D                     	;# 
  1654  008E                     	;# 
  1655  008F                     	;# 
  1656  0090                     	;# 
  1657  0091                     	;# 
  1658  0092                     	;# 
  1659  0093                     	;# 
  1660  0095                     	;# 
  1661  0096                     	;# 
  1662  0097                     	;# 
  1663  0098                     	;# 
  1664  0099                     	;# 
  1665  009A                     	;# 
  1666  009B                     	;# 
  1667  009B                     	;# 
  1668  009C                     	;# 
  1669  009D                     	;# 
  1670  009E                     	;# 
  1671  009F                     	;# 
  1672  010C                     	;# 
  1673  010D                     	;# 
  1674  010E                     	;# 
  1675  010F                     	;# 
  1676  0110                     	;# 
  1677  0111                     	;# 
  1678  0112                     	;# 
  1679  0113                     	;# 
  1680  0114                     	;# 
  1681  0115                     	;# 
  1682  0116                     	;# 
  1683  0117                     	;# 
  1684  0118                     	;# 
  1685  0119                     	;# 
  1686  011A                     	;# 
  1687  011B                     	;# 
  1688  011B                     	;# 
  1689  011C                     	;# 
  1690  018C                     	;# 
  1691  018D                     	;# 
  1692  018E                     	;# 
  1693  018F                     	;# 
  1694  0190                     	;# 
  1695  0191                     	;# 
  1696  0191                     	;# 
  1697  0192                     	;# 
  1698  0193                     	;# 
  1699  0193                     	;# 
  1700  0194                     	;# 
  1701  0195                     	;# 
  1702  0196                     	;# 
  1703  0197                     	;# 
  1704  0199                     	;# 
  1705  0199                     	;# 
  1706  0199                     	;# 
  1707  019A                     	;# 
  1708  019A                     	;# 
  1709  019A                     	;# 
  1710  019B                     	;# 
  1711  019B                     	;# 
  1712  019B                     	;# 
  1713  019B                     	;# 
  1714  019B                     	;# 
  1715  019C                     	;# 
  1716  019C                     	;# 
  1717  019C                     	;# 
  1718  019D                     	;# 
  1719  019D                     	;# 
  1720  019D                     	;# 
  1721  019E                     	;# 
  1722  019E                     	;# 
  1723  019E                     	;# 
  1724  019F                     	;# 
  1725  019F                     	;# 
  1726  019F                     	;# 
  1727  019F                     	;# 
  1728  019F                     	;# 
  1729  020C                     	;# 
  1730  020D                     	;# 
  1731  020E                     	;# 
  1732  020F                     	;# 
  1733  0210                     	;# 
  1734  0211                     	;# 
  1735  0211                     	;# 
  1736  0212                     	;# 
  1737  0212                     	;# 
  1738  0213                     	;# 
  1739  0213                     	;# 
  1740  0214                     	;# 
  1741  0214                     	;# 
  1742  0215                     	;# 
  1743  0215                     	;# 
  1744  0215                     	;# 
  1745  0215                     	;# 
  1746  0216                     	;# 
  1747  0216                     	;# 
  1748  0217                     	;# 
  1749  0217                     	;# 
  1750  028C                     	;# 
  1751  028D                     	;# 
  1752  028E                     	;# 
  1753  028F                     	;# 
  1754  0290                     	;# 
  1755  0291                     	;# 
  1756  0291                     	;# 
  1757  0292                     	;# 
  1758  0293                     	;# 
  1759  0293                     	;# 
  1760  0298                     	;# 
  1761  0298                     	;# 
  1762  0299                     	;# 
  1763  029A                     	;# 
  1764  029A                     	;# 
  1765  029E                     	;# 
  1766  030C                     	;# 
  1767  030D                     	;# 
  1768  030E                     	;# 
  1769  030F                     	;# 
  1770  0310                     	;# 
  1771  038C                     	;# 
  1772  038D                     	;# 
  1773  038E                     	;# 
  1774  038F                     	;# 
  1775  0390                     	;# 
  1776  0391                     	;# 
  1777  0392                     	;# 
  1778  0393                     	;# 
  1779  0394                     	;# 
  1780  0395                     	;# 
  1781  0396                     	;# 
  1782  0397                     	;# 
  1783  0398                     	;# 
  1784  0399                     	;# 
  1785  039D                     	;# 
  1786  039E                     	;# 
  1787  039F                     	;# 
  1788  0415                     	;# 
  1789  0416                     	;# 
  1790  0417                     	;# 
  1791  041C                     	;# 
  1792  041D                     	;# 
  1793  041E                     	;# 
  1794  0498                     	;# 
  1795  0498                     	;# 
  1796  0499                     	;# 
  1797  049A                     	;# 
  1798  049B                     	;# 
  1799  049B                     	;# 
  1800  049C                     	;# 
  1801  049D                     	;# 
  1802  049E                     	;# 
  1803  049F                     	;# 
  1804  0511                     	;# 
  1805  0515                     	;# 
  1806  0617                     	;# 
  1807  0618                     	;# 
  1808  0619                     	;# 
  1809  0619                     	;# 
  1810  061A                     	;# 
  1811  061B                     	;# 
  1812  061C                     	;# 
  1813  061C                     	;# 
  1814  0691                     	;# 
  1815  0692                     	;# 
  1816  0693                     	;# 
  1817  0694                     	;# 
  1818  0695                     	;# 
  1819  0696                     	;# 
  1820  0697                     	;# 
  1821  0698                     	;# 
  1822  0699                     	;# 
  1823  069A                     	;# 
  1824  069B                     	;# 
  1825  069C                     	;# 
  1826  069D                     	;# 
  1827  069E                     	;# 
  1828  069F                     	;# 
  1829  0E0F                     	;# 
  1830  0E10                     	;# 
  1831  0E11                     	;# 
  1832  0E12                     	;# 
  1833  0E13                     	;# 
  1834  0E14                     	;# 
  1835  0E15                     	;# 
  1836  0E17                     	;# 
  1837  0E20                     	;# 
  1838  0E21                     	;# 
  1839  0E22                     	;# 
  1840  0E24                     	;# 
  1841  0E25                     	;# 
  1842  0E28                     	;# 
  1843  0E29                     	;# 
  1844  0E2A                     	;# 
  1845  0E2B                     	;# 
  1846  0E90                     	;# 
  1847  0E91                     	;# 
  1848  0E92                     	;# 
  1849  0E93                     	;# 
  1850  0E94                     	;# 
  1851  0E95                     	;# 
  1852  0E96                     	;# 
  1853  0E97                     	;# 
  1854  0E98                     	;# 
  1855  0E99                     	;# 
  1856  0E9A                     	;# 
  1857  0E9B                     	;# 
  1858  0E9C                     	;# 
  1859  0E9D                     	;# 
  1860  0E9E                     	;# 
  1861  0E9F                     	;# 
  1862  0EA0                     	;# 
  1863  0EA1                     	;# 
  1864  0EA2                     	;# 
  1865  0EA3                     	;# 
  1866  0EA4                     	;# 
  1867  0EA5                     	;# 
  1868  0EA6                     	;# 
  1869  0EA7                     	;# 
  1870  0EA8                     	;# 
  1871  0EA9                     	;# 
  1872  0EAA                     	;# 
  1873  0EAB                     	;# 
  1874  0EAC                     	;# 
  1875  0EAD                     	;# 
  1876  0EAE                     	;# 
  1877  0EAF                     	;# 
  1878  0EB0                     	;# 
  1879  0EB1                     	;# 
  1880  0EB2                     	;# 
  1881  0F0F                     	;# 
  1882  0F10                     	;# 
  1883  0F11                     	;# 
  1884  0F12                     	;# 
  1885  0F13                     	;# 
  1886  0F14                     	;# 
  1887  0F15                     	;# 
  1888  0F16                     	;# 
  1889  0F17                     	;# 
  1890  0F18                     	;# 
  1891  0F19                     	;# 
  1892  0F1A                     	;# 
  1893  0F1B                     	;# 
  1894  0F1C                     	;# 
  1895  0F1D                     	;# 
  1896  0F1E                     	;# 
  1897  0F1F                     	;# 
  1898  0F20                     	;# 
  1899  0F21                     	;# 
  1900  0F22                     	;# 
  1901  0F23                     	;# 
  1902  0F24                     	;# 
  1903  0F25                     	;# 
  1904  0F26                     	;# 
  1905  0F27                     	;# 
  1906  0F28                     	;# 
  1907  0F29                     	;# 
  1908  0F2A                     	;# 
  1909  0F2B                     	;# 
  1910  0F2C                     	;# 
  1911  0F2D                     	;# 
  1912  0F2E                     	;# 
  1913  0F2F                     	;# 
  1914  0F30                     	;# 
  1915  0F31                     	;# 
  1916  0F32                     	;# 
  1917  0F33                     	;# 
  1918  0F34                     	;# 
  1919  0F35                     	;# 
  1920  0F36                     	;# 
  1921  0F37                     	;# 
  1922  0FE4                     	;# 
  1923  0FE5                     	;# 
  1924  0FE6                     	;# 
  1925  0FE7                     	;# 
  1926  0FE8                     	;# 
  1927  0FE9                     	;# 
  1928  0FEA                     	;# 
  1929  0FEB                     	;# 
  1930  0FED                     	;# 
  1931  0FEE                     	;# 
  1932  0FEF                     	;# 
  1933                           
  1934                           	psect	stringtext1
  1935  0260                     __pstringtext1:	
  1936  0260                     _OCD_threshold_setting:	
  1937  0260  3411               	retlw	17
  1938  0261  3400               	retlw	0
  1939  0262  3416               	retlw	22
  1940  0263  3400               	retlw	0
  1941  0264  341C               	retlw	28
  1942  0265  3400               	retlw	0
  1943  0266  3421               	retlw	33
  1944  0267  3400               	retlw	0
  1945  0268  3427               	retlw	39
  1946  0269  3400               	retlw	0
  1947  026A  342C               	retlw	44
  1948  026B  3400               	retlw	0
  1949  026C  3432               	retlw	50
  1950  026D  3400               	retlw	0
  1951  026E  3438               	retlw	56
  1952  026F  3400               	retlw	0
  1953  0270  343D               	retlw	61
  1954  0271  3400               	retlw	0
  1955  0272  3443               	retlw	67
  1956  0273  3400               	retlw	0
  1957  0274  3448               	retlw	72
  1958  0275  3400               	retlw	0
  1959  0276  344E               	retlw	78
  1960  0277  3400               	retlw	0
  1961  0278  3453               	retlw	83
  1962  0279  3400               	retlw	0
  1963  027A  3459               	retlw	89
  1964  027B  3400               	retlw	0
  1965  027C  345E               	retlw	94
  1966  027D  3400               	retlw	0
  1967  027E  3464               	retlw	100
  1968  027F  3400               	retlw	0
  1969  0280                     __end_of_OCD_threshold_setting:	
  1970                           
  1971                           	psect	stringtext2
  1972  029E                     __pstringtext2:	
  1973  029E                     _OCD_delay_setting:	
  1974  029E  3408               	retlw	8
  1975  029F  3400               	retlw	0
  1976  02A0  3414               	retlw	20
  1977  02A1  3400               	retlw	0
  1978  02A2  3428               	retlw	40
  1979  02A3  3400               	retlw	0
  1980  02A4  3450               	retlw	80
  1981  02A5  3400               	retlw	0
  1982  02A6  34A0               	retlw	160
  1983  02A7  3400               	retlw	0
  1984  02A8  3440               	retlw	64
  1985  02A9  3401               	retlw	1
  1986  02AA  3480               	retlw	128
  1987  02AB  3402               	retlw	2
  1988  02AC  3400               	retlw	0
  1989  02AD  3405               	retlw	5
  1990  02AE                     __end_of_OCD_delay_setting:	
  1991                           
  1992                           	psect	stringtext3
  1993  02AE                     __pstringtext3:	
  1994  02AE                     _SCD_threshold_setting:	
  1995  02AE  342C               	retlw	44
  1996  02AF  3400               	retlw	0
  1997  02B0  3443               	retlw	67
  1998  02B1  3400               	retlw	0
  1999  02B2  3459               	retlw	89
  2000  02B3  3400               	retlw	0
  2001  02B4  346F               	retlw	111
  2002  02B5  3400               	retlw	0
  2003  02B6  3485               	retlw	133
  2004  02B7  3400               	retlw	0
  2005  02B8  349B               	retlw	155
  2006  02B9  3400               	retlw	0
  2007  02BA  34B2               	retlw	178
  2008  02BB  3400               	retlw	0
  2009  02BC  34C8               	retlw	200
  2010  02BD  3400               	retlw	0
  2011  02BE                     __end_of_SCD_threshold_setting:	
  2012                           
  2013                           	psect	stringtext4
  2014  02F5                     __pstringtext4:	
  2015  02F5                     _OV_delay_setting:	
  2016  02F5  3401               	retlw	1
  2017  02F6  3400               	retlw	0
  2018  02F7  3402               	retlw	2
  2019  02F8  3400               	retlw	0
  2020  02F9  3404               	retlw	4
  2021  02FA  3400               	retlw	0
  2022  02FB  3408               	retlw	8
  2023  02FC  3400               	retlw	0
  2024  02FD                     __end_of_OV_delay_setting:	
  2025                           
  2026                           	psect	stringtext5
  2027  02FD                     __pstringtext5:	
  2028  02FD                     _UV_delay_setting:	
  2029  02FD  3401               	retlw	1
  2030  02FE  3400               	retlw	0
  2031  02FF  3404               	retlw	4
  2032  0300  3400               	retlw	0
  2033  0301  3408               	retlw	8
  2034  0302  3400               	retlw	0
  2035  0303  3410               	retlw	16
  2036  0304  3400               	retlw	0
  2037  0305                     __end_of_UV_delay_setting:	
  2038                           
  2039                           	psect	stringtext6
  2040  0305                     __pstringtext6:	
  2041  0305                     _SCD_delay_setting:	
  2042  0305  3446               	retlw	70
  2043  0306  3400               	retlw	0
  2044  0307  3464               	retlw	100
  2045  0308  3400               	retlw	0
  2046  0309  34C8               	retlw	200
  2047  030A  3400               	retlw	0
  2048  030B  3490               	retlw	144
  2049  030C  3401               	retlw	1
  2050  030D                     __end_of_SCD_delay_setting:	
  2051                           
  2052                           	psect	stringtext7
  2053  032B                     __pstringtext7:	
  2054  032B                     _ATmega328_address:	
  2055  032B  3402               	retlw	2
  2056  032C  3400               	retlw	0
  2057  032D                     __end_of_ATmega328_address:	
  2058  0016                     _TMR1	set	22
  2059  000B                     _INTCONbits	set	11
  2060  0018                     _T1CONbits	set	24
  2061  0011                     _PIR1bits	set	17
  2062  0090                     _TRISEbits	set	144
  2063  008C                     _TRISAbits	set	140
  2064  008E                     _TRISCbits	set	142
  2065  008D                     _TRISBbits	set	141
  2066  0091                     _PIE1bits	set	145
  2067  0476                     _TRISC6	set	1142
  2068  0477                     _TRISC7	set	1143
  2069  04CF                     _SPLLEN	set	1231
  2070  04CE                     _IRCF3	set	1230
  2071  04CD                     _IRCF2	set	1229
  2072  04CC                     _IRCF1	set	1228
  2073  04CB                     _IRCF0	set	1227
  2074  04C9                     _SCS1	set	1225
  2075  04C8                     _SCS0	set	1224
  2076  0110                     _LATEbits	set	272
  2077  010C                     _LATAbits	set	268
  2078  019A                     _TX1REG	set	410
  2079  0199                     _RC1REG	set	409
  2080  019D                     _RC1STAbits	set	413
  2081  019B                     _SPBRG	set	411
  2082  018E                     _ANSELCbits	set	398
  2083  018D                     _ANSELBbits	set	397
  2084  0CF5                     _TXEN	set	3317
  2085  0CEC                     _CREN	set	3308
  2086  0CEF                     _SPEN	set	3311
  2087  0CF4                     _SYNC	set	3316
  2088  0CF2                     _BRGH	set	3314
  2089  0216                     _SSPCON2bits	set	534
  2090  0211                     _SSPBUF	set	529
  2091  0212                     _SSPADD	set	530
  2092  0215                     _SSPCONbits	set	533
  2093  0E24                     _RXPPSbits	set	3620
  2094  0E20                     _SSPCLKPPSbits	set	3616
  2095  0E21                     _SSPDATPPSbits	set	3617
  2096  0E0F                     _PPSLOCKbits	set	3599
  2097  0E0F                     _PPSLOCK	set	3599
  2098  0E9A                     _RB2PPSbits	set	3738
  2099  0EA5                     _RC5PPSbits	set	3749
  2100  0EA4                     _RC4PPSbits	set	3748
  2101                           
  2102                           ; #config settings
  2103  0000                     
  2104                           	psect	cinit
  2105  001F                     start_initialization:	
  2106  001F                     __initialization:	
  2107                           
  2108                           ; Clear objects allocated to COMMON
  2109  001F  01FC               	clrf	__pbssCOMMON& (0+127)
  2110                           
  2111                           ; Clear objects allocated to BANK0
  2112  0020  3037               	movlw	low __pbssBANK0
  2113  0021  0084               	movwf	4
  2114  0022  3000               	movlw	high __pbssBANK0
  2115  0023  0085               	movwf	5
  2116  0024  300D               	movlw	13
  2117  0025  3183  231D         	fcall	clear_ram0
  2118  0027                     end_of_initialization:	
  2119                           ;End of C runtime variable initialization code
  2120                           
  2121  0027                     __end_of__initialization:	
  2122  0027  107E               	bcf	int$flags,0	;clear compiler interrupt flag (level 1)
  2123  0028  0020               	movlb	0
  2124  0029  3181  29F5         	ljmp	_main	;jump to C main() function
  2125                           
  2126                           	psect	bssCOMMON
  2127  007C                     __pbssCOMMON:	
  2128  007C                     _toggleColor:	
  2129  007C                     	ds	1
  2130                           
  2131                           	psect	bssBANK0
  2132  0037                     __pbssBANK0:	
  2133  0037                     _cellVoltages:	
  2134  0037                     	ds	10
  2135  0041                     myIsr@count:	
  2136  0041                     	ds	1
  2137  0042                     _tmr1_flag:	
  2138  0042                     	ds	1
  2139  0043                     _currState:	
  2140  0043                     	ds	1
  2141                           
  2142                           	psect	clrtext
  2143  031D                     clear_ram0:	
  2144                           ;	Called with FSR0 containing the base address, and
  2145                           ;	WREG with the size to clear
  2146                           
  2147  031D  0064               	clrwdt	;clear the watchdog before getting into this loop
  2148  031E                     clrloop0:	
  2149  031E  0180               	clrf	0	;clear RAM location pointed to by FSR
  2150  031F  3101               	addfsr 0,1
  2151  0320  0B89               	decfsz	9,f	;Have we reached the end of clearing yet?
  2152  0321  2B1E               	goto	clrloop0	;have we reached the end yet?
  2153  0322  3400               	retlw	0	;all done for this memory range, return
  2154                           
  2155                           	psect	cstackCOMMON
  2156  0070                     __pcstackCOMMON:	
  2157  0070                     ?_initClock:	
  2158  0070                     ?_init_GPIO:	
  2159                           ; 1 bytes @ 0x0
  2160                           
  2161  0070                     ?_init_I2C:	
  2162                           ; 1 bytes @ 0x0
  2163                           
  2164  0070                     ?_init_TMR1:	
  2165                           ; 1 bytes @ 0x0
  2166                           
  2167  0070                     ?_init_RGB:	
  2168                           ; 1 bytes @ 0x0
  2169                           
  2170  0070                     ?_statemachine:	
  2171                           ; 1 bytes @ 0x0
  2172                           
  2173  0070                     ?_RGB_AWAIT_AFE_CONN:	
  2174                           ; 1 bytes @ 0x0
  2175                           
  2176  0070                     ?_beginAFEcommunication:	
  2177                           ; 1 bytes @ 0x0
  2178                           
  2179  0070                     ?_init_AFE:	
  2180                           ; 1 bytes @ 0x0
  2181                           
  2182  0070                     ?_internal_16:	
  2183                           ; 1 bytes @ 0x0
  2184                           
  2185  0070                     ?_myIsr:	
  2186                           ; 1 bytes @ 0x0
  2187                           
  2188  0070                     ??_myIsr:	
  2189                           ; 1 bytes @ 0x0
  2190                           
  2191  0070                     ?_main:	
  2192                           ; 1 bytes @ 0x0
  2193                           
  2194  0070                     ?_send_I2C_startBit:	
  2195                           ; 1 bytes @ 0x0
  2196                           
  2197  0070                     ?_send_I2C_stopBit:	
  2198                           ; 1 bytes @ 0x0
  2199                           
  2200                           
  2201                           ; 1 bytes @ 0x0
  2202  0070                     	ds	1
  2203  0071                     ??_initClock:	
  2204  0071                     ??_init_GPIO:	
  2205                           ; 1 bytes @ 0x1
  2206                           
  2207  0071                     ??_init_I2C:	
  2208                           ; 1 bytes @ 0x1
  2209                           
  2210  0071                     ??_init_TMR1:	
  2211                           ; 1 bytes @ 0x1
  2212                           
  2213  0071                     ??_init_RGB:	
  2214                           ; 1 bytes @ 0x1
  2215                           
  2216  0071                     ?_RGB_color:	
  2217                           ; 1 bytes @ 0x1
  2218                           
  2219  0071                     ??_init_AFE:	
  2220                           ; 1 bytes @ 0x1
  2221                           
  2222  0071                     ??_internal_16:	
  2223                           ; 1 bytes @ 0x1
  2224                           
  2225  0071                     ?_send_I2C_data:	
  2226                           ; 1 bytes @ 0x1
  2227                           
  2228  0071                     ?_send_I2C_controlByte:	
  2229                           ; 1 bytes @ 0x1
  2230                           
  2231  0071                     ??_send_I2C_startBit:	
  2232                           ; 1 bytes @ 0x1
  2233                           
  2234  0071                     ??_send_I2C_stopBit:	
  2235                           ; 1 bytes @ 0x1
  2236                           
  2237  0071                     ?___aldiv:	
  2238                           ; 1 bytes @ 0x1
  2239                           
  2240  0071                     send_I2C_data@databyte:	
  2241                           ; 4 bytes @ 0x1
  2242                           
  2243  0071                     send_I2C_controlByte@BlockAddress:	
  2244                           ; 2 bytes @ 0x1
  2245                           
  2246  0071                     RGB_color@color:	
  2247                           ; 2 bytes @ 0x1
  2248                           
  2249  0071                     ___aldiv@divisor:	
  2250                           ; 2 bytes @ 0x1
  2251                           
  2252                           
  2253                           ; 4 bytes @ 0x1
  2254  0071                     	ds	2
  2255  0073                     ??_RGB_AWAIT_AFE_CONN:	
  2256  0073                     ??_RGB_color:	
  2257                           ; 1 bytes @ 0x3
  2258                           
  2259  0073                     ??_send_I2C_data:	
  2260                           ; 1 bytes @ 0x3
  2261                           
  2262  0073                     send_I2C_controlByte@RW_bit:	
  2263                           ; 1 bytes @ 0x3
  2264                           
  2265                           
  2266                           ; 2 bytes @ 0x3
  2267  0073                     	ds	2
  2268  0075                     ??_send_I2C_controlByte:	
  2269  0075                     ?_I2C_writeRegister:	
  2270                           ; 1 bytes @ 0x5
  2271                           
  2272  0075                     I2C_writeRegister@slaveAddress:	
  2273                           ; 1 bytes @ 0x5
  2274                           
  2275  0075                     ___aldiv@dividend:	
  2276                           ; 2 bytes @ 0x5
  2277                           
  2278                           
  2279                           ; 4 bytes @ 0x5
  2280  0075                     	ds	2
  2281  0077                     I2C_writeRegister@regAddress:	
  2282                           
  2283                           ; 2 bytes @ 0x7
  2284  0077                     	ds	2
  2285  0079                     ??___aldiv:	
  2286  0079                     I2C_writeRegister@data:	
  2287                           ; 1 bytes @ 0x9
  2288                           
  2289                           
  2290                           ; 2 bytes @ 0x9
  2291  0079                     	ds	1
  2292  007A                     EUSART_Initialize@x:	
  2293                           
  2294                           ; 2 bytes @ 0xA
  2295  007A                     	ds	1
  2296  007B                     ??_beginAFEcommunication:	
  2297  007B                     ??_I2C_writeRegister:	
  2298                           ; 1 bytes @ 0xB
  2299                           
  2300                           
  2301                           ; 1 bytes @ 0xB
  2302  007B                     	ds	1
  2303                           
  2304                           	psect	cstackBANK0
  2305  0020                     __pcstackBANK0:	
  2306  0020                     beginAFEcommunication@errCode:	
  2307  0020                     ___aldiv@counter:	
  2308                           ; 1 bytes @ 0x0
  2309                           
  2310                           
  2311                           ; 1 bytes @ 0x0
  2312  0020                     	ds	1
  2313  0021                     ___aldiv@sign:	
  2314  0021                     beginAFEcommunication@i:	
  2315                           ; 1 bytes @ 0x1
  2316                           
  2317                           
  2318                           ; 2 bytes @ 0x1
  2319  0021                     	ds	1
  2320  0022                     ___aldiv@quotient:	
  2321                           
  2322                           ; 4 bytes @ 0x2
  2323  0022                     	ds	1
  2324  0023                     ??_statemachine:	
  2325                           
  2326                           ; 1 bytes @ 0x3
  2327  0023                     	ds	1
  2328  0024                     statemachine@success:	
  2329                           
  2330                           ; 1 bytes @ 0x4
  2331  0024                     	ds	2
  2332  0026                     ?_EUSART_Initialize:	
  2333  0026                     EUSART_Initialize@baudrate:	
  2334                           ; 1 bytes @ 0x6
  2335                           
  2336                           
  2337                           ; 4 bytes @ 0x6
  2338  0026                     	ds	4
  2339  002A                     ??_EUSART_Initialize:	
  2340                           
  2341                           ; 1 bytes @ 0xA
  2342  002A                     	ds	12
  2343  0036                     ??_main:	
  2344                           
  2345                           ; 1 bytes @ 0x16
  2346  0036                     	ds	1
  2347                           
  2348                           	psect	maintext
  2349  01F5                     __pmaintext:	
  2350 ;;
  2351 ;;Main: autosize = 0, tempsize = 1, incstack = 0, save=0
  2352 ;;
  2353 ;; *************** function _main *****************
  2354 ;; Defined at:
  2355 ;;		line 76 in file "main.c"
  2356 ;; Parameters:    Size  Location     Type
  2357 ;;		None
  2358 ;; Auto vars:     Size  Location     Type
  2359 ;;		None
  2360 ;; Return value:  Size  Location     Type
  2361 ;;                  1    wreg      void 
  2362 ;; Registers used:
  2363 ;;		wreg, fsr0l, fsr0h, fsr1l, fsr1h, status,2, status,0, pclath, cstack
  2364 ;; Tracked objects:
  2365 ;;		On entry : B1F/0
  2366 ;;		On exit  : 0/0
  2367 ;;		Unchanged: 0/0
  2368 ;; Data sizes:     COMMON   BANK0   BANK1   BANK2   BANK3   BANK4   BANK5   BANK6   BANK7   BANK8   BANK9  BANK10  BANK1
      +1  BANK12  BANK13  BANK14  BANK15  BANK16  BANK17  BANK18  BANK19  BANK20  BANK21  BANK22  BANK23  BANK24  BANK25
  2369 ;;      Params:         0       0       0       0       0       0       0       0       0       0       0       0       
      +0       0       0       0       0       0       0       0       0       0       0       0       0       0       0
  2370 ;;      Locals:         0       0       0       0       0       0       0       0       0       0       0       0       
      +0       0       0       0       0       0       0       0       0       0       0       0       0       0       0
  2371 ;;      Temps:          0       1       0       0       0       0       0       0       0       0       0       0       
      +0       0       0       0       0       0       0       0       0       0       0       0       0       0       0
  2372 ;;      Totals:         0       1       0       0       0       0       0       0       0       0       0       0       
      +0       0       0       0       0       0       0       0       0       0       0       0       0       0       0
  2373 ;;Total ram usage:        1 bytes
  2374 ;; Hardware stack levels required when called:    5
  2375 ;; This function calls:
  2376 ;;		_EUSART_Initialize
  2377 ;;		_initClock
  2378 ;;		_init_GPIO
  2379 ;;		_init_I2C
  2380 ;;		_init_RGB
  2381 ;;		_init_TMR1
  2382 ;;		_statemachine
  2383 ;; This function is called by:
  2384 ;;		Startup code after reset
  2385 ;; This function uses a non-reentrant model
  2386 ;;
  2387                           
  2388                           
  2389                           ;psect for function _main
  2390  01F5                     _main:	
  2391                           
  2392                           ;main.c: 79:     initClock();
  2393                           
  2394                           ;incstack = 0
  2395                           ; Regs used in _main: [wreg-fsr1h+status,2+status,0+pclath+cstack]
  2396  01F5  3183  2328  3181   	fcall	_initClock
  2397                           
  2398                           ;main.c: 80:     init_GPIO();
  2399  01F8  3181  2191  3181   	fcall	_init_GPIO
  2400                           
  2401                           ;main.c: 81:     init_I2C();
  2402  01FB  3182  22BE  3181   	fcall	_init_I2C
  2403                           
  2404                           ;main.c: 82:     EUSART_Initialize(9600);
  2405  01FE  3000               	movlw	0
  2406  01FF  0020               	movlb	0	; select bank0
  2407  0200  00A9               	movwf	EUSART_Initialize@baudrate+3
  2408  0201  3000               	movlw	0
  2409  0202  00A8               	movwf	EUSART_Initialize@baudrate+2
  2410  0203  3025               	movlw	37
  2411  0204  00A7               	movwf	EUSART_Initialize@baudrate+1
  2412  0205  3080               	movlw	128
  2413  0206  00A6               	movwf	EUSART_Initialize@baudrate
  2414  0207  3180  202B  3181   	fcall	_EUSART_Initialize
  2415                           
  2416                           ;main.c: 83:     init_TMR1();
  2417  020A  3182  22CE  3181   	fcall	_init_TMR1
  2418                           
  2419                           ;main.c: 84:     init_RGB();
  2420  020D  3183  2323  3181   	fcall	_init_RGB
  2421  0210                     l1454:	
  2422                           
  2423                           ;main.c: 88:         statemachine();
  2424  0210  3181  2155  3181   	fcall	_statemachine
  2425                           
  2426                           ;main.c: 90:         _delay((unsigned long)((10)*(16000000/4000.0)));
  2427  0213  3034               	movlw	52
  2428  0214  0020               	movlb	0	; select bank0
  2429  0215  00B6               	movwf	??_main
  2430  0216  30F1               	movlw	241
  2431  0217                     u737:	
  2432  0217  0B89               	decfsz	9,f
  2433  0218  2A17               	goto	u737
  2434  0219  0BB6               	decfsz	??_main,f
  2435  021A  2A17               	goto	u737
  2436  021B  3200               	nop2
  2437  021C  2A10               	goto	l1454
  2438  021D                     __end_of_main:	
  2439                           
  2440                           	psect	text1
  2441  0155                     __ptext1:	
  2442 ;; *************** function _statemachine *****************
  2443 ;; Defined at:
  2444 ;;		line 96 in file "main.c"
  2445 ;; Parameters:    Size  Location     Type
  2446 ;;		None
  2447 ;; Auto vars:     Size  Location     Type
  2448 ;;  success         1    4[BANK0 ] unsigned char 
  2449 ;; Return value:  Size  Location     Type
  2450 ;;                  1    wreg      void 
  2451 ;; Registers used:
  2452 ;;		wreg, fsr0l, fsr0h, fsr1l, fsr1h, status,2, status,0, pclath, cstack
  2453 ;; Tracked objects:
  2454 ;;		On entry : 0/0
  2455 ;;		On exit  : 0/0
  2456 ;;		Unchanged: 0/0
  2457 ;; Data sizes:     COMMON   BANK0   BANK1   BANK2   BANK3   BANK4   BANK5   BANK6   BANK7   BANK8   BANK9  BANK10  BANK1
      +1  BANK12  BANK13  BANK14  BANK15  BANK16  BANK17  BANK18  BANK19  BANK20  BANK21  BANK22  BANK23  BANK24  BANK25
  2458 ;;      Params:         0       0       0       0       0       0       0       0       0       0       0       0       
      +0       0       0       0       0       0       0       0       0       0       0       0       0       0       0
  2459 ;;      Locals:         0       1       0       0       0       0       0       0       0       0       0       0       
      +0       0       0       0       0       0       0       0       0       0       0       0       0       0       0
  2460 ;;      Temps:          0       1       0       0       0       0       0       0       0       0       0       0       
      +0       0       0       0       0       0       0       0       0       0       0       0       0       0       0
  2461 ;;      Totals:         0       2       0       0       0       0       0       0       0       0       0       0       
      +0       0       0       0       0       0       0       0       0       0       0       0       0       0       0
  2462 ;;Total ram usage:        2 bytes
  2463 ;; Hardware stack levels used:    1
  2464 ;; Hardware stack levels required when called:    4
  2465 ;; This function calls:
  2466 ;;		_RGB_AWAIT_AFE_CONN
  2467 ;;		_RGB_color
  2468 ;;		_beginAFEcommunication
  2469 ;;		_init_AFE
  2470 ;; This function is called by:
  2471 ;;		_main
  2472 ;; This function uses a non-reentrant model
  2473 ;;
  2474                           
  2475                           
  2476                           ;psect for function _statemachine
  2477  0155                     _statemachine:	
  2478                           
  2479                           ;main.c: 98:     switch (currState) {
  2480                           
  2481                           ;incstack = 0
  2482                           ; Regs used in _statemachine: [wreg-fsr1h+status,2+status,0+pclath+cstack]
  2483  0155  2980               	goto	l1438
  2484  0156                     l1416:	
  2485                           
  2486                           ;main.c: 101:             if (tmr1_flag) {
  2487  0156  0020               	movlb	0	; select bank0
  2488  0157  0842               	movf	_tmr1_flag,w	;volatile
  2489  0158  1903               	btfsc	3,2
  2490  0159  0008               	return
  2491                           
  2492                           ;main.c: 102:                 tmr1_flag = 0;
  2493  015A  01C2               	clrf	_tmr1_flag	;volatile
  2494                           
  2495                           ;main.c: 103:                 RGB_AWAIT_AFE_CONN();
  2496  015B  3182  221D  3181   	fcall	_RGB_AWAIT_AFE_CONN
  2497                           
  2498                           ;main.c: 104:                 uint8_t success = beginAFEcommunication();
  2499  015E  3181  21C9  3181   	fcall	_beginAFEcommunication
  2500  0161  0020               	movlb	0	; select bank0
  2501  0162  00A3               	movwf	??_statemachine
  2502  0163  0823               	movf	??_statemachine,w
  2503  0164  00A4               	movwf	statemachine@success
  2504                           
  2505                           ;main.c: 106:                 if (success) {
  2506  0165  0824               	movf	statemachine@success,w
  2507  0166  1903               	btfsc	3,2
  2508  0167  0008               	return
  2509                           
  2510                           ;main.c: 107:                     T1CONbits.TMR1ON = 0;
  2511  0168  1018               	bcf	24,0	;volatile
  2512                           
  2513                           ;main.c: 108:                     PIE1bits.TMR1IE = 0;
  2514  0169  0021               	movlb	1	; select bank1
  2515  016A  1011               	bcf	17,0	;volatile
  2516                           
  2517                           ;main.c: 109:                     RGB_color(0);
  2518  016B  3000               	movlw	0
  2519  016C  00F1               	movwf	RGB_color@color
  2520  016D  00F2               	movwf	RGB_color@color+1
  2521  016E  3182  223F  3181   	fcall	_RGB_color
  2522                           
  2523                           ;main.c: 110:                     tmr1_flag = 0;
  2524  0171  0020               	movlb	0	; select bank0
  2525  0172  01C2               	clrf	_tmr1_flag	;volatile
  2526                           
  2527                           ;main.c: 113:                     _delay((unsigned long)((5)*(16000000/4000.0)));
  2528  0173  301A               	movlw	26
  2529  0174  0020               	movlb	0	; select bank0
  2530  0175  00A3               	movwf	??_statemachine
  2531  0176  30F8               	movlw	248
  2532  0177                     u747:	
  2533  0177  0B89               	decfsz	9,f
  2534  0178  2977               	goto	u747
  2535  0179  0BA3               	decfsz	??_statemachine,f
  2536  017A  2977               	goto	u747
  2537  017B  0000               	nop
  2538  017C  0008               	return
  2539  017D                     l1434:	
  2540                           
  2541                           ;main.c: 125:             init_AFE();
  2542  017D  3183  232D         	fcall	_init_AFE
  2543                           
  2544                           ;main.c: 130:             break;
  2545  017F  0008               	return
  2546  0180                     l1438:	
  2547                           
  2548                           ; Switch on 2 bytes has been partitioned into a top level switch of size 1, and 1 sub-sw
      +                          itches
  2549                           ; Switch size 1, requested type "simple"
  2550                           ; Number of cases is 1, Range of values is 0 to 0
  2551                           ; switch strategies available:
  2552                           ; Name         Instructions Cycles
  2553                           ; simple_byte            4     3 (average)
  2554                           ; direct_byte            8     6 (fixed)
  2555                           ; jumptable            260     6 (fixed)
  2556                           ;	Chosen strategy is simple_byte
  2557  0180  3000               	movlw	0
  2558  0181  3A00               	xorlw	0	; case 0
  2559  0182  1903               	skipnz
  2560  0183  2985               	goto	l1498
  2561  0184  2990               	goto	l113
  2562  0185                     l1498:	
  2563                           
  2564                           ; Switch size 1, requested type "simple"
  2565                           ; Number of cases is 3, Range of values is 0 to 2
  2566                           ; switch strategies available:
  2567                           ; Name         Instructions Cycles
  2568                           ; simple_byte           10     6 (average)
  2569                           ; direct_byte           12     6 (fixed)
  2570                           ; jumptable            260     6 (fixed)
  2571                           ;	Chosen strategy is simple_byte
  2572  0185  3000               	movlw	0
  2573  0186  3A00               	xorlw	0	; case 0
  2574  0187  1903               	skipnz
  2575  0188  2956               	goto	l1416
  2576  0189  3A01               	xorlw	1	; case 1
  2577  018A  1903               	skipnz
  2578  018B  297D               	goto	l1434
  2579  018C  3A03               	xorlw	3	; case 2
  2580  018D  1903               	skipnz
  2581  018E  2990               	goto	l113
  2582  018F  2990               	goto	l113
  2583  0190                     l113:	
  2584  0190  0008               	return
  2585  0191                     __end_of_statemachine:	
  2586                           
  2587                           	psect	text2
  2588  032D                     __ptext2:	
  2589 ;; *************** function _init_AFE *****************
  2590 ;; Defined at:
  2591 ;;		line 137 in file "main.c"
  2592 ;; Parameters:    Size  Location     Type
  2593 ;;		None
  2594 ;; Auto vars:     Size  Location     Type
  2595 ;;		None
  2596 ;; Return value:  Size  Location     Type
  2597 ;;                  1    wreg      void 
  2598 ;; Registers used:
  2599 ;;		None
  2600 ;; Tracked objects:
  2601 ;;		On entry : 0/0
  2602 ;;		On exit  : 0/0
  2603 ;;		Unchanged: 0/0
  2604 ;; Data sizes:     COMMON   BANK0   BANK1   BANK2   BANK3   BANK4   BANK5   BANK6   BANK7   BANK8   BANK9  BANK10  BANK1
      +1  BANK12  BANK13  BANK14  BANK15  BANK16  BANK17  BANK18  BANK19  BANK20  BANK21  BANK22  BANK23  BANK24  BANK25
  2605 ;;      Params:         0       0       0       0       0       0       0       0       0       0       0       0       
      +0       0       0       0       0       0       0       0       0       0       0       0       0       0       0
  2606 ;;      Locals:         0       0       0       0       0       0       0       0       0       0       0       0       
      +0       0       0       0       0       0       0       0       0       0       0       0       0       0       0
  2607 ;;      Temps:          0       0       0       0       0       0       0       0       0       0       0       0       
      +0       0       0       0       0       0       0       0       0       0       0       0       0       0       0
  2608 ;;      Totals:         0       0       0       0       0       0       0       0       0       0       0       0       
      +0       0       0       0       0       0       0       0       0       0       0       0       0       0       0
  2609 ;;Total ram usage:        0 bytes
  2610 ;; Hardware stack levels used:    1
  2611 ;; Hardware stack levels required when called:    1
  2612 ;; This function calls:
  2613 ;;		Nothing
  2614 ;; This function is called by:
  2615 ;;		_statemachine
  2616 ;; This function uses a non-reentrant model
  2617 ;;
  2618                           
  2619                           
  2620                           ;psect for function _init_AFE
  2621  032D                     _init_AFE:	
  2622                           
  2623                           ;incstack = 0
  2624                           ; Regs used in _init_AFE: []
  2625  032D  0008               	return
  2626  032E                     __end_of_init_AFE:	
  2627                           
  2628                           	psect	text3
  2629  01C9                     __ptext3:	
  2630 ;; *************** function _beginAFEcommunication *****************
  2631 ;; Defined at:
  2632 ;;		line 7 in file "BQ76920.c"
  2633 ;; Parameters:    Size  Location     Type
  2634 ;;		None
  2635 ;; Auto vars:     Size  Location     Type
  2636 ;;  i               2    1[BANK0 ] int 
  2637 ;;  errCode         1    0[BANK0 ] unsigned char 
  2638 ;; Return value:  Size  Location     Type
  2639 ;;                  1    wreg      unsigned char 
  2640 ;; Registers used:
  2641 ;;		wreg, fsr1l, fsr1h, status,2, status,0, pclath, cstack
  2642 ;; Tracked objects:
  2643 ;;		On entry : 0/0
  2644 ;;		On exit  : 0/0
  2645 ;;		Unchanged: 0/0
  2646 ;; Data sizes:     COMMON   BANK0   BANK1   BANK2   BANK3   BANK4   BANK5   BANK6   BANK7   BANK8   BANK9  BANK10  BANK1
      +1  BANK12  BANK13  BANK14  BANK15  BANK16  BANK17  BANK18  BANK19  BANK20  BANK21  BANK22  BANK23  BANK24  BANK25
  2647 ;;      Params:         0       0       0       0       0       0       0       0       0       0       0       0       
      +0       0       0       0       0       0       0       0       0       0       0       0       0       0       0
  2648 ;;      Locals:         0       3       0       0       0       0       0       0       0       0       0       0       
      +0       0       0       0       0       0       0       0       0       0       0       0       0       0       0
  2649 ;;      Temps:          1       0       0       0       0       0       0       0       0       0       0       0       
      +0       0       0       0       0       0       0       0       0       0       0       0       0       0       0
  2650 ;;      Totals:         1       3       0       0       0       0       0       0       0       0       0       0       
      +0       0       0       0       0       0       0       0       0       0       0       0       0       0       0
  2651 ;;Total ram usage:        4 bytes
  2652 ;; Hardware stack levels used:    1
  2653 ;; Hardware stack levels required when called:    3
  2654 ;; This function calls:
  2655 ;;		_I2C_writeRegister
  2656 ;; This function is called by:
  2657 ;;		_statemachine
  2658 ;; This function uses a non-reentrant model
  2659 ;;
  2660                           
  2661                           
  2662                           ;psect for function _beginAFEcommunication
  2663  01C9                     _beginAFEcommunication:	
  2664                           
  2665                           ;BQ76920.c: 9:    uint8_t errCode = 0;
  2666                           
  2667                           ;incstack = 0
  2668                           ; Regs used in _beginAFEcommunication: [wreg+fsr1l+fsr1h+status,2+status,0+pclath+cstack
      +                          ]
  2669  01C9  0020               	movlb	0	; select bank0
  2670  01CA  01A0               	clrf	beginAFEcommunication@errCode
  2671                           
  2672                           ;BQ76920.c: 12:   for (int i = 0; i < 4; i++) {
  2673  01CB  01A1               	clrf	beginAFEcommunication@i
  2674  01CC  01A2               	clrf	beginAFEcommunication@i+1
  2675  01CD                     l1222:	
  2676                           
  2677                           ;BQ76920.c: 13:     cellVoltages[i] = 0;
  2678  01CD  0020               	movlb	0	; select bank0
  2679  01CE  3521               	lslf	beginAFEcommunication@i,w
  2680  01CF  3E37               	addlw	(low (_cellVoltages| 0))& (0+255)
  2681  01D0  0086               	movwf	6
  2682  01D1  0187               	clrf	7
  2683  01D2  3000               	movlw	0
  2684  01D3  3FC0               	movwi [0]fsr1
  2685  01D4  3FC1               	movwi [1]fsr1
  2686                           
  2687                           ;BQ76920.c: 14:   }
  2688  01D5  3001               	movlw	1
  2689  01D6  07A1               	addwf	beginAFEcommunication@i,f
  2690  01D7  3000               	movlw	0
  2691  01D8  3DA2               	addwfc	beginAFEcommunication@i+1,f
  2692  01D9  0822               	movf	beginAFEcommunication@i+1,w
  2693  01DA  3A80               	xorlw	128
  2694  01DB  00FB               	movwf	??_beginAFEcommunication
  2695  01DC  3080               	movlw	128
  2696  01DD  027B               	subwf	??_beginAFEcommunication,w
  2697  01DE  1D03               	skipz
  2698  01DF  29E2               	goto	u495
  2699  01E0  3004               	movlw	4
  2700  01E1  0221               	subwf	beginAFEcommunication@i,w
  2701  01E2                     u495:	
  2702  01E2  1C03               	skipc
  2703  01E3  29CD               	goto	l1222
  2704                           
  2705                           ;BQ76920.c: 17:    I2C_writeRegister(0x18,0x0B,0x19);
  2706  01E4  3018               	movlw	24
  2707  01E5  00F5               	movwf	I2C_writeRegister@slaveAddress
  2708  01E6  3000               	movlw	0
  2709  01E7  00F6               	movwf	I2C_writeRegister@slaveAddress+1
  2710  01E8  300B               	movlw	11
  2711  01E9  00F7               	movwf	I2C_writeRegister@regAddress
  2712  01EA  3000               	movlw	0
  2713  01EB  00F8               	movwf	I2C_writeRegister@regAddress+1
  2714  01EC  3019               	movlw	25
  2715  01ED  00F9               	movwf	I2C_writeRegister@data
  2716  01EE  3000               	movlw	0
  2717  01EF  00FA               	movwf	I2C_writeRegister@data+1
  2718  01F0  3182  2280         	fcall	_I2C_writeRegister
  2719                           
  2720                           ;BQ76920.c: 23:   return errCode;
  2721  01F2  0020               	movlb	0	; select bank0
  2722  01F3  0820               	movf	beginAFEcommunication@errCode,w
  2723  01F4  0008               	return
  2724  01F5                     __end_of_beginAFEcommunication:	
  2725                           
  2726                           	psect	text4
  2727  0280                     __ptext4:	
  2728 ;; *************** function _I2C_writeRegister *****************
  2729 ;; Defined at:
  2730 ;;		line 118 in file "I2C.c"
  2731 ;; Parameters:    Size  Location     Type
  2732 ;;  slaveAddress    2    5[COMMON] int 
  2733 ;;  regAddress      2    7[COMMON] int 
  2734 ;;  data            2    9[COMMON] int 
  2735 ;; Auto vars:     Size  Location     Type
  2736 ;;		None
  2737 ;; Return value:  Size  Location     Type
  2738 ;;                  1    wreg      void 
  2739 ;; Registers used:
  2740 ;;		wreg, status,2, status,0, pclath, cstack
  2741 ;; Tracked objects:
  2742 ;;		On entry : 0/0
  2743 ;;		On exit  : 0/0
  2744 ;;		Unchanged: 0/0
  2745 ;; Data sizes:     COMMON   BANK0   BANK1   BANK2   BANK3   BANK4   BANK5   BANK6   BANK7   BANK8   BANK9  BANK10  BANK1
      +1  BANK12  BANK13  BANK14  BANK15  BANK16  BANK17  BANK18  BANK19  BANK20  BANK21  BANK22  BANK23  BANK24  BANK25
  2746 ;;      Params:         6       0       0       0       0       0       0       0       0       0       0       0       
      +0       0       0       0       0       0       0       0       0       0       0       0       0       0       0
  2747 ;;      Locals:         0       0       0       0       0       0       0       0       0       0       0       0       
      +0       0       0       0       0       0       0       0       0       0       0       0       0       0       0
  2748 ;;      Temps:          0       0       0       0       0       0       0       0       0       0       0       0       
      +0       0       0       0       0       0       0       0       0       0       0       0       0       0       0
  2749 ;;      Totals:         6       0       0       0       0       0       0       0       0       0       0       0       
      +0       0       0       0       0       0       0       0       0       0       0       0       0       0       0
  2750 ;;Total ram usage:        6 bytes
  2751 ;; Hardware stack levels used:    1
  2752 ;; Hardware stack levels required when called:    2
  2753 ;; This function calls:
  2754 ;;		_send_I2C_controlByte
  2755 ;;		_send_I2C_data
  2756 ;;		_send_I2C_startBit
  2757 ;;		_send_I2C_stopBit
  2758 ;; This function is called by:
  2759 ;;		_beginAFEcommunication
  2760 ;; This function uses a non-reentrant model
  2761 ;;
  2762                           
  2763                           
  2764                           ;psect for function _I2C_writeRegister
  2765  0280                     _I2C_writeRegister:	
  2766                           
  2767                           ;I2C.c: 119:     send_I2C_startBit();
  2768                           
  2769                           ;incstack = 0
  2770                           ; Regs used in _I2C_writeRegister: [wreg+status,2+status,0+pclath+cstack]
  2771  0280  3183  2315  3182   	fcall	_send_I2C_startBit
  2772                           
  2773                           ;I2C.c: 120:     send_I2C_controlByte(slaveAddress, 0);
  2774  0283  0876               	movf	I2C_writeRegister@slaveAddress+1,w
  2775  0284  00F2               	movwf	send_I2C_controlByte@BlockAddress+1
  2776  0285  0875               	movf	I2C_writeRegister@slaveAddress,w
  2777  0286  00F1               	movwf	send_I2C_controlByte@BlockAddress
  2778  0287  3000               	movlw	0
  2779  0288  00F3               	movwf	send_I2C_controlByte@RW_bit
  2780  0289  00F4               	movwf	send_I2C_controlByte@RW_bit+1
  2781  028A  3182  22D9  3182   	fcall	_send_I2C_controlByte
  2782                           
  2783                           ;I2C.c: 121:     send_I2C_data(regAddress);
  2784  028D  0878               	movf	I2C_writeRegister@regAddress+1,w
  2785  028E  00F2               	movwf	send_I2C_data@databyte+1
  2786  028F  0877               	movf	I2C_writeRegister@regAddress,w
  2787  0290  00F1               	movwf	send_I2C_data@databyte
  2788  0291  3182  22E3  3182   	fcall	_send_I2C_data
  2789                           
  2790                           ;I2C.c: 122:     send_I2C_data(data);
  2791  0294  087A               	movf	I2C_writeRegister@data+1,w
  2792  0295  00F2               	movwf	send_I2C_data@databyte+1
  2793  0296  0879               	movf	I2C_writeRegister@data,w
  2794  0297  00F1               	movwf	send_I2C_data@databyte
  2795  0298  3182  22E3  3182   	fcall	_send_I2C_data
  2796                           
  2797                           ;I2C.c: 123:     send_I2C_stopBit();
  2798  029B  3183  230D         	fcall	_send_I2C_stopBit
  2799  029D  0008               	return
  2800  029E                     __end_of_I2C_writeRegister:	
  2801                           
  2802                           	psect	text5
  2803  030D                     __ptext5:	
  2804 ;; *************** function _send_I2C_stopBit *****************
  2805 ;; Defined at:
  2806 ;;		line 70 in file "I2C.c"
  2807 ;; Parameters:    Size  Location     Type
  2808 ;;		None
  2809 ;; Auto vars:     Size  Location     Type
  2810 ;;		None
  2811 ;; Return value:  Size  Location     Type
  2812 ;;                  1    wreg      void 
  2813 ;; Registers used:
  2814 ;;		None
  2815 ;; Tracked objects:
  2816 ;;		On entry : 0/0
  2817 ;;		On exit  : 0/0
  2818 ;;		Unchanged: 0/0
  2819 ;; Data sizes:     COMMON   BANK0   BANK1   BANK2   BANK3   BANK4   BANK5   BANK6   BANK7   BANK8   BANK9  BANK10  BANK1
      +1  BANK12  BANK13  BANK14  BANK15  BANK16  BANK17  BANK18  BANK19  BANK20  BANK21  BANK22  BANK23  BANK24  BANK25
  2820 ;;      Params:         0       0       0       0       0       0       0       0       0       0       0       0       
      +0       0       0       0       0       0       0       0       0       0       0       0       0       0       0
  2821 ;;      Locals:         0       0       0       0       0       0       0       0       0       0       0       0       
      +0       0       0       0       0       0       0       0       0       0       0       0       0       0       0
  2822 ;;      Temps:          0       0       0       0       0       0       0       0       0       0       0       0       
      +0       0       0       0       0       0       0       0       0       0       0       0       0       0       0
  2823 ;;      Totals:         0       0       0       0       0       0       0       0       0       0       0       0       
      +0       0       0       0       0       0       0       0       0       0       0       0       0       0       0
  2824 ;;Total ram usage:        0 bytes
  2825 ;; Hardware stack levels used:    1
  2826 ;; Hardware stack levels required when called:    1
  2827 ;; This function calls:
  2828 ;;		Nothing
  2829 ;; This function is called by:
  2830 ;;		_I2C_writeRegister
  2831 ;;		_retrieve_data_ATmega328
  2832 ;;		_readRegister
  2833 ;; This function uses a non-reentrant model
  2834 ;;
  2835                           
  2836                           
  2837                           ;psect for function _send_I2C_stopBit
  2838  030D                     _send_I2C_stopBit:	
  2839                           
  2840                           ;I2C.c: 71:     PIR1bits.SSP1IF = 0;
  2841                           
  2842                           ;incstack = 0
  2843                           ; Regs used in _send_I2C_stopBit: []
  2844  030D  0020               	movlb	0	; select bank0
  2845  030E  1191               	bcf	17,3	;volatile
  2846                           
  2847                           ;I2C.c: 72:     SSPCON2bits.PEN = 1;
  2848  030F  0024               	movlb	4	; select bank4
  2849  0310  1516               	bsf	22,2	;volatile
  2850  0311                     l249:	
  2851                           ;I2C.c: 73:     while (!PIR1bits.SSP1IF);
  2852                           
  2853  0311  0020               	movlb	0	; select bank0
  2854  0312  1991               	btfsc	17,3	;volatile
  2855  0313  0008               	return
  2856  0314  2B11               	goto	l249
  2857  0315                     __end_of_send_I2C_stopBit:	
  2858                           
  2859                           	psect	text6
  2860  0315                     __ptext6:	
  2861 ;; *************** function _send_I2C_startBit *****************
  2862 ;; Defined at:
  2863 ;;		line 64 in file "I2C.c"
  2864 ;; Parameters:    Size  Location     Type
  2865 ;;		None
  2866 ;; Auto vars:     Size  Location     Type
  2867 ;;		None
  2868 ;; Return value:  Size  Location     Type
  2869 ;;                  1    wreg      void 
  2870 ;; Registers used:
  2871 ;;		None
  2872 ;; Tracked objects:
  2873 ;;		On entry : 0/0
  2874 ;;		On exit  : 0/0
  2875 ;;		Unchanged: 0/0
  2876 ;; Data sizes:     COMMON   BANK0   BANK1   BANK2   BANK3   BANK4   BANK5   BANK6   BANK7   BANK8   BANK9  BANK10  BANK1
      +1  BANK12  BANK13  BANK14  BANK15  BANK16  BANK17  BANK18  BANK19  BANK20  BANK21  BANK22  BANK23  BANK24  BANK25
  2877 ;;      Params:         0       0       0       0       0       0       0       0       0       0       0       0       
      +0       0       0       0       0       0       0       0       0       0       0       0       0       0       0
  2878 ;;      Locals:         0       0       0       0       0       0       0       0       0       0       0       0       
      +0       0       0       0       0       0       0       0       0       0       0       0       0       0       0
  2879 ;;      Temps:          0       0       0       0       0       0       0       0       0       0       0       0       
      +0       0       0       0       0       0       0       0       0       0       0       0       0       0       0
  2880 ;;      Totals:         0       0       0       0       0       0       0       0       0       0       0       0       
      +0       0       0       0       0       0       0       0       0       0       0       0       0       0       0
  2881 ;;Total ram usage:        0 bytes
  2882 ;; Hardware stack levels used:    1
  2883 ;; Hardware stack levels required when called:    1
  2884 ;; This function calls:
  2885 ;;		Nothing
  2886 ;; This function is called by:
  2887 ;;		_I2C_writeRegister
  2888 ;;		_retrieve_data_ATmega328
  2889 ;;		_readRegister
  2890 ;; This function uses a non-reentrant model
  2891 ;;
  2892                           
  2893                           
  2894                           ;psect for function _send_I2C_startBit
  2895  0315                     _send_I2C_startBit:	
  2896                           
  2897                           ;I2C.c: 65:     PIR1bits.SSP1IF = 0;
  2898                           
  2899                           ;incstack = 0
  2900                           ; Regs used in _send_I2C_startBit: []
  2901  0315  0020               	movlb	0	; select bank0
  2902  0316  1191               	bcf	17,3	;volatile
  2903                           
  2904                           ;I2C.c: 66:     SSPCON2bits.SEN = 1;
  2905  0317  0024               	movlb	4	; select bank4
  2906  0318  1416               	bsf	22,0	;volatile
  2907  0319                     l243:	
  2908                           ;I2C.c: 67:     while (!PIR1bits.SSP1IF);
  2909                           
  2910  0319  0020               	movlb	0	; select bank0
  2911  031A  1991               	btfsc	17,3	;volatile
  2912  031B  0008               	return
  2913  031C  2B19               	goto	l243
  2914  031D                     __end_of_send_I2C_startBit:	
  2915                           
  2916                           	psect	text7
  2917  02E3                     __ptext7:	
  2918 ;; *************** function _send_I2C_data *****************
  2919 ;; Defined at:
  2920 ;;		line 33 in file "I2C.c"
  2921 ;; Parameters:    Size  Location     Type
  2922 ;;  databyte        2    1[COMMON] unsigned int 
  2923 ;; Auto vars:     Size  Location     Type
  2924 ;;		None
  2925 ;; Return value:  Size  Location     Type
  2926 ;;                  1    wreg      void 
  2927 ;; Registers used:
  2928 ;;		wreg
  2929 ;; Tracked objects:
  2930 ;;		On entry : 0/0
  2931 ;;		On exit  : 0/0
  2932 ;;		Unchanged: 0/0
  2933 ;; Data sizes:     COMMON   BANK0   BANK1   BANK2   BANK3   BANK4   BANK5   BANK6   BANK7   BANK8   BANK9  BANK10  BANK1
      +1  BANK12  BANK13  BANK14  BANK15  BANK16  BANK17  BANK18  BANK19  BANK20  BANK21  BANK22  BANK23  BANK24  BANK25
  2934 ;;      Params:         2       0       0       0       0       0       0       0       0       0       0       0       
      +0       0       0       0       0       0       0       0       0       0       0       0       0       0       0
  2935 ;;      Locals:         0       0       0       0       0       0       0       0       0       0       0       0       
      +0       0       0       0       0       0       0       0       0       0       0       0       0       0       0
  2936 ;;      Temps:          0       0       0       0       0       0       0       0       0       0       0       0       
      +0       0       0       0       0       0       0       0       0       0       0       0       0       0       0
  2937 ;;      Totals:         2       0       0       0       0       0       0       0       0       0       0       0       
      +0       0       0       0       0       0       0       0       0       0       0       0       0       0       0
  2938 ;;Total ram usage:        2 bytes
  2939 ;; Hardware stack levels used:    1
  2940 ;; Hardware stack levels required when called:    1
  2941 ;; This function calls:
  2942 ;;		Nothing
  2943 ;; This function is called by:
  2944 ;;		_I2C_writeRegister
  2945 ;;		_readRegister
  2946 ;; This function uses a non-reentrant model
  2947 ;;
  2948                           
  2949                           
  2950                           ;psect for function _send_I2C_data
  2951  02E3                     _send_I2C_data:	
  2952                           
  2953                           ;I2C.c: 34:     PIR1bits.SSP1IF = 0;
  2954                           
  2955                           ;incstack = 0
  2956                           ; Regs used in _send_I2C_data: [wreg]
  2957  02E3  0020               	movlb	0	; select bank0
  2958  02E4  1191               	bcf	17,3	;volatile
  2959                           
  2960                           ;I2C.c: 35:     SSPBUF = databyte;
  2961  02E5  0871               	movf	send_I2C_data@databyte,w
  2962  02E6  0024               	movlb	4	; select bank4
  2963  02E7  0091               	movwf	17	;volatile
  2964  02E8                     l225:	
  2965                           ;I2C.c: 36:     while (!PIR1bits.SSP1IF);
  2966                           
  2967  02E8  0020               	movlb	0	; select bank0
  2968  02E9  1991               	btfsc	17,3	;volatile
  2969  02EA  0008               	return
  2970  02EB  2AE8               	goto	l225
  2971  02EC                     __end_of_send_I2C_data:	
  2972                           
  2973                           	psect	text8
  2974  02D9                     __ptext8:	
  2975 ;; *************** function _send_I2C_controlByte *****************
  2976 ;; Defined at:
  2977 ;;		line 52 in file "I2C.c"
  2978 ;; Parameters:    Size  Location     Type
  2979 ;;  BlockAddress    2    1[COMMON] unsigned int 
  2980 ;;  RW_bit          2    3[COMMON] unsigned int 
  2981 ;; Auto vars:     Size  Location     Type
  2982 ;;		None
  2983 ;; Return value:  Size  Location     Type
  2984 ;;                  1    wreg      void 
  2985 ;; Registers used:
  2986 ;;		wreg, status,2, status,0
  2987 ;; Tracked objects:
  2988 ;;		On entry : 0/0
  2989 ;;		On exit  : 0/0
  2990 ;;		Unchanged: 0/0
  2991 ;; Data sizes:     COMMON   BANK0   BANK1   BANK2   BANK3   BANK4   BANK5   BANK6   BANK7   BANK8   BANK9  BANK10  BANK1
      +1  BANK12  BANK13  BANK14  BANK15  BANK16  BANK17  BANK18  BANK19  BANK20  BANK21  BANK22  BANK23  BANK24  BANK25
  2992 ;;      Params:         4       0       0       0       0       0       0       0       0       0       0       0       
      +0       0       0       0       0       0       0       0       0       0       0       0       0       0       0
  2993 ;;      Locals:         0       0       0       0       0       0       0       0       0       0       0       0       
      +0       0       0       0       0       0       0       0       0       0       0       0       0       0       0
  2994 ;;      Temps:          0       0       0       0       0       0       0       0       0       0       0       0       
      +0       0       0       0       0       0       0       0       0       0       0       0       0       0       0
  2995 ;;      Totals:         4       0       0       0       0       0       0       0       0       0       0       0       
      +0       0       0       0       0       0       0       0       0       0       0       0       0       0       0
  2996 ;;Total ram usage:        4 bytes
  2997 ;; Hardware stack levels used:    1
  2998 ;; Hardware stack levels required when called:    1
  2999 ;; This function calls:
  3000 ;;		Nothing
  3001 ;; This function is called by:
  3002 ;;		_I2C_writeRegister
  3003 ;;		_retrieve_data_ATmega328
  3004 ;;		_readRegister
  3005 ;; This function uses a non-reentrant model
  3006 ;;
  3007                           
  3008                           
  3009                           ;psect for function _send_I2C_controlByte
  3010  02D9                     _send_I2C_controlByte:	
  3011                           
  3012                           ;I2C.c: 53:     PIR1bits.SSP1IF = 0;
  3013                           
  3014                           ;incstack = 0
  3015                           ; Regs used in _send_I2C_controlByte: [wreg+status,2+status,0]
  3016  02D9  0020               	movlb	0	; select bank0
  3017  02DA  1191               	bcf	17,3	;volatile
  3018                           
  3019                           ;I2C.c: 59:     SSPBUF = (((0b0000 << 4) | (BlockAddress << 1)) + RW_bit);
  3020  02DB  3571               	lslf	send_I2C_controlByte@BlockAddress,w
  3021  02DC  0773               	addwf	send_I2C_controlByte@RW_bit,w
  3022  02DD  0024               	movlb	4	; select bank4
  3023  02DE  0091               	movwf	17	;volatile
  3024  02DF                     l237:	
  3025                           ;I2C.c: 61:     while (!PIR1bits.SSP1IF);
  3026                           
  3027  02DF  0020               	movlb	0	; select bank0
  3028  02E0  1991               	btfsc	17,3	;volatile
  3029  02E1  0008               	return
  3030  02E2  2ADF               	goto	l237
  3031  02E3                     __end_of_send_I2C_controlByte:	
  3032                           
  3033                           	psect	text9
  3034  021D                     __ptext9:	
  3035 ;; *************** function _RGB_AWAIT_AFE_CONN *****************
  3036 ;; Defined at:
  3037 ;;		line 43 in file "RGB.c"
  3038 ;; Parameters:    Size  Location     Type
  3039 ;;		None
  3040 ;; Auto vars:     Size  Location     Type
  3041 ;;		None
  3042 ;; Return value:  Size  Location     Type
  3043 ;;                  1    wreg      void 
  3044 ;; Registers used:
  3045 ;;		wreg, fsr0l, fsr0h, status,2, status,0, pclath, cstack
  3046 ;; Tracked objects:
  3047 ;;		On entry : 0/0
  3048 ;;		On exit  : 0/0
  3049 ;;		Unchanged: 0/0
  3050 ;; Data sizes:     COMMON   BANK0   BANK1   BANK2   BANK3   BANK4   BANK5   BANK6   BANK7   BANK8   BANK9  BANK10  BANK1
      +1  BANK12  BANK13  BANK14  BANK15  BANK16  BANK17  BANK18  BANK19  BANK20  BANK21  BANK22  BANK23  BANK24  BANK25
  3051 ;;      Params:         0       0       0       0       0       0       0       0       0       0       0       0       
      +0       0       0       0       0       0       0       0       0       0       0       0       0       0       0
  3052 ;;      Locals:         0       0       0       0       0       0       0       0       0       0       0       0       
      +0       0       0       0       0       0       0       0       0       0       0       0       0       0       0
  3053 ;;      Temps:          1       0       0       0       0       0       0       0       0       0       0       0       
      +0       0       0       0       0       0       0       0       0       0       0       0       0       0       0
  3054 ;;      Totals:         1       0       0       0       0       0       0       0       0       0       0       0       
      +0       0       0       0       0       0       0       0       0       0       0       0       0       0       0
  3055 ;;Total ram usage:        1 bytes
  3056 ;; Hardware stack levels used:    1
  3057 ;; Hardware stack levels required when called:    2
  3058 ;; This function calls:
  3059 ;;		_RGB_color
  3060 ;; This function is called by:
  3061 ;;		_statemachine
  3062 ;; This function uses a non-reentrant model
  3063 ;;
  3064                           
  3065                           
  3066                           ;psect for function _RGB_AWAIT_AFE_CONN
  3067  021D                     _RGB_AWAIT_AFE_CONN:	
  3068                           
  3069                           ;RGB.c: 45:     if (toggleColor) {
  3070                           
  3071                           ;incstack = 0
  3072                           ; Regs used in _RGB_AWAIT_AFE_CONN: [wreg-fsr0h+status,2+status,0+pclath+cstack]
  3073  021D  087C               	movf	_toggleColor,w
  3074  021E  1903               	btfsc	3,2
  3075  021F  2A2F               	goto	l1212
  3076                           
  3077                           ;RGB.c: 46:         toggleColor = !toggleColor;
  3078  0220  087C               	movf	_toggleColor,w
  3079  0221  1D03               	btfss	3,2
  3080  0222  2A25               	goto	u450
  3081  0223  3001               	movlw	1
  3082  0224  2A26               	goto	u460
  3083  0225                     u450:	
  3084  0225  3000               	movlw	0
  3085  0226                     u460:	
  3086  0226  00F3               	movwf	??_RGB_AWAIT_AFE_CONN
  3087  0227  0873               	movf	??_RGB_AWAIT_AFE_CONN,w
  3088  0228  00FC               	movwf	_toggleColor
  3089                           
  3090                           ;RGB.c: 47:         RGB_color(0);
  3091  0229  3000               	movlw	0
  3092  022A  00F1               	movwf	RGB_color@color
  3093  022B  00F2               	movwf	RGB_color@color+1
  3094  022C  3182  223F         	fcall	_RGB_color
  3095                           
  3096                           ;RGB.c: 48:     } else {
  3097  022E  0008               	return
  3098  022F                     l1212:	
  3099                           
  3100                           ;RGB.c: 49:         toggleColor = !toggleColor;
  3101  022F  087C               	movf	_toggleColor,w
  3102  0230  1D03               	btfss	3,2
  3103  0231  2A34               	goto	u470
  3104  0232  3001               	movlw	1
  3105  0233  2A35               	goto	u480
  3106  0234                     u470:	
  3107  0234  3000               	movlw	0
  3108  0235                     u480:	
  3109  0235  00F3               	movwf	??_RGB_AWAIT_AFE_CONN
  3110  0236  0873               	movf	??_RGB_AWAIT_AFE_CONN,w
  3111  0237  00FC               	movwf	_toggleColor
  3112                           
  3113                           ;RGB.c: 50:         RGB_color(1);
  3114  0238  3001               	movlw	1
  3115  0239  00F1               	movwf	RGB_color@color
  3116  023A  3000               	movlw	0
  3117  023B  00F2               	movwf	RGB_color@color+1
  3118  023C  3182  223F         	fcall	_RGB_color
  3119  023E  0008               	return
  3120  023F                     __end_of_RGB_AWAIT_AFE_CONN:	
  3121                           
  3122                           	psect	text10
  3123  023F                     __ptext10:	
  3124 ;; *************** function _RGB_color *****************
  3125 ;; Defined at:
  3126 ;;		line 17 in file "RGB.c"
  3127 ;; Parameters:    Size  Location     Type
  3128 ;;  color           2    1[COMMON] int 
  3129 ;; Auto vars:     Size  Location     Type
  3130 ;;		None
  3131 ;; Return value:  Size  Location     Type
  3132 ;;                  1    wreg      void 
  3133 ;; Registers used:
  3134 ;;		wreg, fsr0l, fsr0h, status,2, status,0
  3135 ;; Tracked objects:
  3136 ;;		On entry : 0/0
  3137 ;;		On exit  : 0/0
  3138 ;;		Unchanged: 0/0
  3139 ;; Data sizes:     COMMON   BANK0   BANK1   BANK2   BANK3   BANK4   BANK5   BANK6   BANK7   BANK8   BANK9  BANK10  BANK1
      +1  BANK12  BANK13  BANK14  BANK15  BANK16  BANK17  BANK18  BANK19  BANK20  BANK21  BANK22  BANK23  BANK24  BANK25
  3140 ;;      Params:         2       0       0       0       0       0       0       0       0       0       0       0       
      +0       0       0       0       0       0       0       0       0       0       0       0       0       0       0
  3141 ;;      Locals:         0       0       0       0       0       0       0       0       0       0       0       0       
      +0       0       0       0       0       0       0       0       0       0       0       0       0       0       0
  3142 ;;      Temps:          0       0       0       0       0       0       0       0       0       0       0       0       
      +0       0       0       0       0       0       0       0       0       0       0       0       0       0       0
  3143 ;;      Totals:         2       0       0       0       0       0       0       0       0       0       0       0       
      +0       0       0       0       0       0       0       0       0       0       0       0       0       0       0
  3144 ;;Total ram usage:        2 bytes
  3145 ;; Hardware stack levels used:    1
  3146 ;; Hardware stack levels required when called:    1
  3147 ;; This function calls:
  3148 ;;		Nothing
  3149 ;; This function is called by:
  3150 ;;		_statemachine
  3151 ;;		_RGB_AWAIT_AFE_CONN
  3152 ;; This function uses a non-reentrant model
  3153 ;;
  3154                           
  3155                           
  3156                           ;psect for function _RGB_color
  3157  023F                     _RGB_color:	
  3158                           
  3159                           ;RGB.c: 19:     switch (color) {
  3160                           
  3161                           ;incstack = 0
  3162                           ; Regs used in _RGB_color: [wreg-fsr0h+status,2+status,0]
  3163  023F  2A4F               	goto	l1190
  3164  0240                     l286:	
  3165                           ;RGB.c: 20:         case 0:
  3166                           
  3167                           
  3168                           ;RGB.c: 21:             LATAbits.LATA4 = 0;
  3169  0240  0022               	movlb	2	; select bank2
  3170  0241  120C               	bcf	12,4	;volatile
  3171                           
  3172                           ;RGB.c: 22:             LATAbits.LATA5 = 1;
  3173  0242  168C               	bsf	12,5	;volatile
  3174                           
  3175                           ;RGB.c: 23:             LATEbits.LATE0 = 1;
  3176  0243  1410               	bsf	16,0	;volatile
  3177                           
  3178                           ;RGB.c: 24:             break;
  3179  0244  0008               	return
  3180  0245                     l288:	
  3181                           ;RGB.c: 25:         case 1:
  3182                           
  3183                           
  3184                           ;RGB.c: 26:             LATAbits.LATA4 = 1;
  3185  0245  0022               	movlb	2	; select bank2
  3186  0246  160C               	bsf	12,4	;volatile
  3187                           
  3188                           ;RGB.c: 27:             LATAbits.LATA5 = 0;
  3189  0247  128C               	bcf	12,5	;volatile
  3190                           
  3191                           ;RGB.c: 28:             LATEbits.LATE0 = 1;
  3192  0248  1410               	bsf	16,0	;volatile
  3193                           
  3194                           ;RGB.c: 29:             break;
  3195  0249  0008               	return
  3196  024A                     l289:	
  3197                           ;RGB.c: 30:         case 2:
  3198                           
  3199                           
  3200                           ;RGB.c: 31:             LATAbits.LATA4 = 1;
  3201  024A  0022               	movlb	2	; select bank2
  3202  024B  160C               	bsf	12,4	;volatile
  3203                           
  3204                           ;RGB.c: 32:             LATAbits.LATA5 = 1;
  3205  024C  168C               	bsf	12,5	;volatile
  3206                           
  3207                           ;RGB.c: 33:             LATEbits.LATE0 = 0;
  3208  024D  1010               	bcf	16,0	;volatile
  3209                           
  3210                           ;RGB.c: 34:             break;
  3211  024E  0008               	return
  3212  024F                     l1190:	
  3213                           
  3214                           ; Switch on 2 bytes has been partitioned into a top level switch of size 1, and 1 sub-sw
      +                          itches
  3215                           ; Switch size 1, requested type "simple"
  3216                           ; Number of cases is 1, Range of values is 0 to 0
  3217                           ; switch strategies available:
  3218                           ; Name         Instructions Cycles
  3219                           ; simple_byte            4     3 (average)
  3220                           ; direct_byte            8     6 (fixed)
  3221                           ; jumptable            260     6 (fixed)
  3222                           ;	Chosen strategy is simple_byte
  3223  024F  0872               	movf	RGB_color@color+1,w
  3224  0250  3A00               	xorlw	0	; case 0
  3225  0251  1903               	skipnz
  3226  0252  2A54               	goto	l1500
  3227  0253  2A5F               	goto	l290
  3228  0254                     l1500:	
  3229                           
  3230                           ; Switch size 1, requested type "simple"
  3231                           ; Number of cases is 3, Range of values is 0 to 2
  3232                           ; switch strategies available:
  3233                           ; Name         Instructions Cycles
  3234                           ; simple_byte           10     6 (average)
  3235                           ; direct_byte           12     6 (fixed)
  3236                           ; jumptable            260     6 (fixed)
  3237                           ;	Chosen strategy is simple_byte
  3238  0254  0871               	movf	RGB_color@color,w
  3239  0255  3A00               	xorlw	0	; case 0
  3240  0256  1903               	skipnz
  3241  0257  2A40               	goto	l286
  3242  0258  3A01               	xorlw	1	; case 1
  3243  0259  1903               	skipnz
  3244  025A  2A45               	goto	l288
  3245  025B  3A03               	xorlw	3	; case 2
  3246  025C  1903               	skipnz
  3247  025D  2A4A               	goto	l289
  3248  025E  2A5F               	goto	l290
  3249  025F                     l290:	
  3250  025F  0008               	return
  3251  0260                     __end_of_RGB_color:	
  3252                           
  3253                           	psect	text11
  3254  02CE                     __ptext11:	
  3255 ;; *************** function _init_TMR1 *****************
  3256 ;; Defined at:
  3257 ;;		line 162 in file "main.c"
  3258 ;; Parameters:    Size  Location     Type
  3259 ;;		None
  3260 ;; Auto vars:     Size  Location     Type
  3261 ;;		None
  3262 ;; Return value:  Size  Location     Type
  3263 ;;                  1    wreg      void 
  3264 ;; Registers used:
  3265 ;;		wreg, status,2, status,0
  3266 ;; Tracked objects:
  3267 ;;		On entry : 0/0
  3268 ;;		On exit  : 0/0
  3269 ;;		Unchanged: 0/0
  3270 ;; Data sizes:     COMMON   BANK0   BANK1   BANK2   BANK3   BANK4   BANK5   BANK6   BANK7   BANK8   BANK9  BANK10  BANK1
      +1  BANK12  BANK13  BANK14  BANK15  BANK16  BANK17  BANK18  BANK19  BANK20  BANK21  BANK22  BANK23  BANK24  BANK25
  3271 ;;      Params:         0       0       0       0       0       0       0       0       0       0       0       0       
      +0       0       0       0       0       0       0       0       0       0       0       0       0       0       0
  3272 ;;      Locals:         0       0       0       0       0       0       0       0       0       0       0       0       
      +0       0       0       0       0       0       0       0       0       0       0       0       0       0       0
  3273 ;;      Temps:          0       0       0       0       0       0       0       0       0       0       0       0       
      +0       0       0       0       0       0       0       0       0       0       0       0       0       0       0
  3274 ;;      Totals:         0       0       0       0       0       0       0       0       0       0       0       0       
      +0       0       0       0       0       0       0       0       0       0       0       0       0       0       0
  3275 ;;Total ram usage:        0 bytes
  3276 ;; Hardware stack levels used:    1
  3277 ;; Hardware stack levels required when called:    1
  3278 ;; This function calls:
  3279 ;;		Nothing
  3280 ;; This function is called by:
  3281 ;;		_main
  3282 ;; This function uses a non-reentrant model
  3283 ;;
  3284                           
  3285                           
  3286                           ;psect for function _init_TMR1
  3287  02CE                     _init_TMR1:	
  3288                           
  3289                           ;main.c: 165:     T1CONbits.T1CKPS = 0b00;
  3290                           
  3291                           ;incstack = 0
  3292                           ; Regs used in _init_TMR1: [wreg+status,2+status,0]
  3293  02CE  30CF               	movlw	-49
  3294  02CF  0020               	movlb	0	; select bank0
  3295  02D0  0598               	andwf	24,f	;volatile
  3296                           
  3297                           ;main.c: 167:     TMR1 = 0;
  3298  02D1  0196               	clrf	22	;volatile
  3299  02D2  0197               	clrf	23	;volatile
  3300                           
  3301                           ;main.c: 169:     T1CONbits.TMR1ON = 1;
  3302  02D3  1418               	bsf	24,0	;volatile
  3303                           
  3304                           ;main.c: 171:     PIE1bits.TMR1IE = 1;
  3305  02D4  0021               	movlb	1	; select bank1
  3306  02D5  1411               	bsf	17,0	;volatile
  3307                           
  3308                           ;main.c: 173:     INTCONbits.PEIE = 1;
  3309  02D6  170B               	bsf	11,6	;volatile
  3310                           
  3311                           ;main.c: 175:     (INTCONbits.GIE = 1);
  3312  02D7  178B               	bsf	11,7	;volatile
  3313  02D8  0008               	return
  3314  02D9                     __end_of_init_TMR1:	
  3315                           
  3316                           	psect	text12
  3317  0323                     __ptext12:	
  3318 ;; *************** function _init_RGB *****************
  3319 ;; Defined at:
  3320 ;;		line 6 in file "RGB.c"
  3321 ;; Parameters:    Size  Location     Type
  3322 ;;		None
  3323 ;; Auto vars:     Size  Location     Type
  3324 ;;		None
  3325 ;; Return value:  Size  Location     Type
  3326 ;;                  1    wreg      void 
  3327 ;; Registers used:
  3328 ;;		None
  3329 ;; Tracked objects:
  3330 ;;		On entry : 0/0
  3331 ;;		On exit  : 0/0
  3332 ;;		Unchanged: 0/0
  3333 ;; Data sizes:     COMMON   BANK0   BANK1   BANK2   BANK3   BANK4   BANK5   BANK6   BANK7   BANK8   BANK9  BANK10  BANK1
      +1  BANK12  BANK13  BANK14  BANK15  BANK16  BANK17  BANK18  BANK19  BANK20  BANK21  BANK22  BANK23  BANK24  BANK25
  3334 ;;      Params:         0       0       0       0       0       0       0       0       0       0       0       0       
      +0       0       0       0       0       0       0       0       0       0       0       0       0       0       0
  3335 ;;      Locals:         0       0       0       0       0       0       0       0       0       0       0       0       
      +0       0       0       0       0       0       0       0       0       0       0       0       0       0       0
  3336 ;;      Temps:          0       0       0       0       0       0       0       0       0       0       0       0       
      +0       0       0       0       0       0       0       0       0       0       0       0       0       0       0
  3337 ;;      Totals:         0       0       0       0       0       0       0       0       0       0       0       0       
      +0       0       0       0       0       0       0       0       0       0       0       0       0       0       0
  3338 ;;Total ram usage:        0 bytes
  3339 ;; Hardware stack levels used:    1
  3340 ;; Hardware stack levels required when called:    1
  3341 ;; This function calls:
  3342 ;;		Nothing
  3343 ;; This function is called by:
  3344 ;;		_main
  3345 ;; This function uses a non-reentrant model
  3346 ;;
  3347                           
  3348                           
  3349                           ;psect for function _init_RGB
  3350  0323                     _init_RGB:	
  3351                           
  3352                           ;RGB.c: 8:     LATAbits.LATA4 = 1;
  3353                           
  3354                           ;incstack = 0
  3355                           ; Regs used in _init_RGB: []
  3356  0323  0022               	movlb	2	; select bank2
  3357  0324  160C               	bsf	12,4	;volatile
  3358                           
  3359                           ;RGB.c: 9:     LATAbits.LATA5 = 1;
  3360  0325  168C               	bsf	12,5	;volatile
  3361                           
  3362                           ;RGB.c: 10:     LATEbits.LATE0 = 1;
  3363  0326  1410               	bsf	16,0	;volatile
  3364  0327  0008               	return
  3365  0328                     __end_of_init_RGB:	
  3366                           
  3367                           	psect	text13
  3368  02BE                     __ptext13:	
  3369 ;; *************** function _init_I2C *****************
  3370 ;; Defined at:
  3371 ;;		line 10 in file "I2C.c"
  3372 ;; Parameters:    Size  Location     Type
  3373 ;;		None
  3374 ;; Auto vars:     Size  Location     Type
  3375 ;;		None
  3376 ;; Return value:  Size  Location     Type
  3377 ;;                  1    wreg      void 
  3378 ;; Registers used:
  3379 ;;		wreg, status,2, status,0
  3380 ;; Tracked objects:
  3381 ;;		On entry : 0/0
  3382 ;;		On exit  : 0/0
  3383 ;;		Unchanged: 0/0
  3384 ;; Data sizes:     COMMON   BANK0   BANK1   BANK2   BANK3   BANK4   BANK5   BANK6   BANK7   BANK8   BANK9  BANK10  BANK1
      +1  BANK12  BANK13  BANK14  BANK15  BANK16  BANK17  BANK18  BANK19  BANK20  BANK21  BANK22  BANK23  BANK24  BANK25
  3385 ;;      Params:         0       0       0       0       0       0       0       0       0       0       0       0       
      +0       0       0       0       0       0       0       0       0       0       0       0       0       0       0
  3386 ;;      Locals:         0       0       0       0       0       0       0       0       0       0       0       0       
      +0       0       0       0       0       0       0       0       0       0       0       0       0       0       0
  3387 ;;      Temps:          1       0       0       0       0       0       0       0       0       0       0       0       
      +0       0       0       0       0       0       0       0       0       0       0       0       0       0       0
  3388 ;;      Totals:         1       0       0       0       0       0       0       0       0       0       0       0       
      +0       0       0       0       0       0       0       0       0       0       0       0       0       0       0
  3389 ;;Total ram usage:        1 bytes
  3390 ;; Hardware stack levels used:    1
  3391 ;; Hardware stack levels required when called:    1
  3392 ;; This function calls:
  3393 ;;		Nothing
  3394 ;; This function is called by:
  3395 ;;		_main
  3396 ;; This function uses a non-reentrant model
  3397 ;;
  3398                           
  3399                           
  3400                           ;psect for function _init_I2C
  3401  02BE                     _init_I2C:	
  3402                           
  3403                           ;I2C.c: 14:     SSPCONbits.SSPM = 0x08;
  3404                           
  3405                           ;incstack = 0
  3406                           ; Regs used in _init_I2C: [wreg+status,2+status,0]
  3407  02BE  0024               	movlb	4	; select bank4
  3408  02BF  0815               	movf	21,w	;volatile
  3409  02C0  39F0               	andlw	-16
  3410  02C1  3808               	iorlw	8
  3411  02C2  0095               	movwf	21	;volatile
  3412                           
  3413                           ;I2C.c: 15:     SSPCONbits.SSPEN = 1;
  3414  02C3  1695               	bsf	21,5	;volatile
  3415                           
  3416                           ;I2C.c: 24:     SSPADD = 39;
  3417  02C4  3027               	movlw	39
  3418  02C5  0092               	movwf	18	;volatile
  3419                           
  3420                           ;I2C.c: 27:     _delay((unsigned long)((10)*(16000000/4000.0)));
  3421  02C6  3034               	movlw	52
  3422  02C7  00F1               	movwf	??_init_I2C
  3423  02C8  30F2               	movlw	242
  3424  02C9                     u757:	
  3425  02C9  0B89               	decfsz	9,f
  3426  02CA  2AC9               	goto	u757
  3427  02CB  0BF1               	decfsz	??_init_I2C,f
  3428  02CC  2AC9               	goto	u757
  3429  02CD  0008               	return
  3430  02CE                     __end_of_init_I2C:	
  3431                           
  3432                           	psect	text14
  3433  0191                     __ptext14:	
  3434 ;; *************** function _init_GPIO *****************
  3435 ;; Defined at:
  3436 ;;		line 179 in file "main.c"
  3437 ;; Parameters:    Size  Location     Type
  3438 ;;		None
  3439 ;; Auto vars:     Size  Location     Type
  3440 ;;		None
  3441 ;; Return value:  Size  Location     Type
  3442 ;;                  1    wreg      void 
  3443 ;; Registers used:
  3444 ;;		wreg, status,2, status,0
  3445 ;; Tracked objects:
  3446 ;;		On entry : 0/0
  3447 ;;		On exit  : 0/0
  3448 ;;		Unchanged: 0/0
  3449 ;; Data sizes:     COMMON   BANK0   BANK1   BANK2   BANK3   BANK4   BANK5   BANK6   BANK7   BANK8   BANK9  BANK10  BANK1
      +1  BANK12  BANK13  BANK14  BANK15  BANK16  BANK17  BANK18  BANK19  BANK20  BANK21  BANK22  BANK23  BANK24  BANK25
  3450 ;;      Params:         0       0       0       0       0       0       0       0       0       0       0       0       
      +0       0       0       0       0       0       0       0       0       0       0       0       0       0       0
  3451 ;;      Locals:         0       0       0       0       0       0       0       0       0       0       0       0       
      +0       0       0       0       0       0       0       0       0       0       0       0       0       0       0
  3452 ;;      Temps:          0       0       0       0       0       0       0       0       0       0       0       0       
      +0       0       0       0       0       0       0       0       0       0       0       0       0       0       0
  3453 ;;      Totals:         0       0       0       0       0       0       0       0       0       0       0       0       
      +0       0       0       0       0       0       0       0       0       0       0       0       0       0       0
  3454 ;;Total ram usage:        0 bytes
  3455 ;; Hardware stack levels used:    1
  3456 ;; Hardware stack levels required when called:    1
  3457 ;; This function calls:
  3458 ;;		Nothing
  3459 ;; This function is called by:
  3460 ;;		_main
  3461 ;; This function uses a non-reentrant model
  3462 ;;
  3463                           
  3464                           
  3465                           ;psect for function _init_GPIO
  3466  0191                     _init_GPIO:	
  3467                           
  3468                           ;main.c: 185:     TRISBbits.TRISB2 = 0;
  3469                           
  3470                           ;incstack = 0
  3471                           ; Regs used in _init_GPIO: [wreg+status,2+status,0]
  3472  0191  0021               	movlb	1	; select bank1
  3473  0192  110D               	bcf	13,2	;volatile
  3474                           
  3475                           ;main.c: 186:     ANSELBbits.ANSB2 = 0;
  3476  0193  0023               	movlb	3	; select bank3
  3477  0194  110D               	bcf	13,2	;volatile
  3478                           
  3479                           ;main.c: 187:     TRISBbits.TRISB3 = 1;
  3480  0195  0021               	movlb	1	; select bank1
  3481  0196  158D               	bsf	13,3	;volatile
  3482                           
  3483                           ;main.c: 188:     ANSELBbits.ANSB3 = 0;
  3484  0197  0023               	movlb	3	; select bank3
  3485  0198  118D               	bcf	13,3	;volatile
  3486                           
  3487                           ;main.c: 193:     ANSELCbits.ANSC4 = 0;
  3488  0199  120E               	bcf	14,4	;volatile
  3489                           
  3490                           ;main.c: 194:     ANSELCbits.ANSC5 = 0;
  3491  019A  128E               	bcf	14,5	;volatile
  3492                           
  3493                           ;main.c: 195:     TRISCbits.TRISC4 = 1;
  3494  019B  0021               	movlb	1	; select bank1
  3495  019C  160E               	bsf	14,4	;volatile
  3496                           
  3497                           ;main.c: 196:     TRISCbits.TRISC5 = 1;
  3498  019D  168E               	bsf	14,5	;volatile
  3499                           
  3500                           ;main.c: 205:     TRISAbits.TRISA4 = 0;
  3501  019E  120C               	bcf	12,4	;volatile
  3502                           
  3503                           ;main.c: 206:     TRISAbits.TRISA5 = 0;
  3504  019F  128C               	bcf	12,5	;volatile
  3505                           
  3506                           ;main.c: 207:     TRISEbits.TRISE0 = 0;
  3507  01A0  1010               	bcf	16,0	;volatile
  3508                           
  3509                           ;main.c: 213:     PPSLOCK = 0x55;
  3510  01A1  3055               	movlw	85
  3511  01A2  003C               	movlb	28	; select bank28
  3512  01A3  008F               	movwf	15	;volsfr
  3513                           
  3514                           ;main.c: 214:     PPSLOCK = 0xAA;
  3515  01A4  30AA               	movlw	170
  3516  01A5  008F               	movwf	15	;volsfr
  3517                           
  3518                           ;main.c: 215:     PPSLOCKbits.PPSLOCKED = 0x00;
  3519  01A6  100F               	bcf	15,0	;volsfr
  3520                           
  3521                           ;main.c: 219:     RC4PPSbits.RC4PPS = 0x0011;
  3522  01A7  003D               	movlb	29	; select bank29
  3523  01A8  0824               	movf	36,w	;volatile
  3524  01A9  39E0               	andlw	-32
  3525  01AA  3811               	iorlw	17
  3526  01AB  00A4               	movwf	36	;volatile
  3527                           
  3528                           ;main.c: 220:     SSPDATPPSbits.SSPDATPPS = 0x0014;
  3529  01AC  003C               	movlb	28	; select bank28
  3530  01AD  0821               	movf	33,w	;volatile
  3531  01AE  39E0               	andlw	-32
  3532  01AF  3814               	iorlw	20
  3533  01B0  00A1               	movwf	33	;volatile
  3534                           
  3535                           ;main.c: 221:     SSPCLKPPSbits.SSPCLKPPS = 0x0015;
  3536  01B1  0820               	movf	32,w	;volatile
  3537  01B2  39E0               	andlw	-32
  3538  01B3  3815               	iorlw	21
  3539  01B4  00A0               	movwf	32	;volatile
  3540                           
  3541                           ;main.c: 222:     RC5PPSbits.RC5PPS = 0x0010;
  3542  01B5  003D               	movlb	29	; select bank29
  3543  01B6  0825               	movf	37,w	;volatile
  3544  01B7  39E0               	andlw	-32
  3545  01B8  3810               	iorlw	16
  3546  01B9  00A5               	movwf	37	;volatile
  3547                           
  3548                           ;main.c: 225:     RB2PPSbits.RB2PPS = 0x14;
  3549  01BA  081A               	movf	26,w	;volatile
  3550  01BB  39E0               	andlw	-32
  3551  01BC  3814               	iorlw	20
  3552  01BD  009A               	movwf	26	;volatile
  3553                           
  3554                           ;main.c: 226:     RXPPSbits.RXPPS = 0x0B;
  3555  01BE  003C               	movlb	28	; select bank28
  3556  01BF  0824               	movf	36,w	;volatile
  3557  01C0  39E0               	andlw	-32
  3558  01C1  380B               	iorlw	11
  3559  01C2  00A4               	movwf	36	;volatile
  3560                           
  3561                           ;main.c: 228:     PPSLOCK = 0x55;
  3562  01C3  3055               	movlw	85
  3563  01C4  008F               	movwf	15	;volsfr
  3564                           
  3565                           ;main.c: 229:     PPSLOCK = 0xAA;
  3566  01C5  30AA               	movlw	170
  3567  01C6  008F               	movwf	15	;volsfr
  3568                           
  3569                           ;main.c: 230:     PPSLOCKbits.PPSLOCKED = 0x01;
  3570  01C7  140F               	bsf	15,0	;volsfr
  3571  01C8  0008               	return
  3572  01C9                     __end_of_init_GPIO:	
  3573                           
  3574                           	psect	text15
  3575  0328                     __ptext15:	
  3576 ;; *************** function _initClock *****************
  3577 ;; Defined at:
  3578 ;;		line 153 in file "main.c"
  3579 ;; Parameters:    Size  Location     Type
  3580 ;;		None
  3581 ;; Auto vars:     Size  Location     Type
  3582 ;;		None
  3583 ;; Return value:  Size  Location     Type
  3584 ;;                  1    wreg      void 
  3585 ;; Registers used:
  3586 ;;		status,2, status,0, pclath, cstack
  3587 ;; Tracked objects:
  3588 ;;		On entry : 0/0
  3589 ;;		On exit  : 0/0
  3590 ;;		Unchanged: 0/0
  3591 ;; Data sizes:     COMMON   BANK0   BANK1   BANK2   BANK3   BANK4   BANK5   BANK6   BANK7   BANK8   BANK9  BANK10  BANK1
      +1  BANK12  BANK13  BANK14  BANK15  BANK16  BANK17  BANK18  BANK19  BANK20  BANK21  BANK22  BANK23  BANK24  BANK25
  3592 ;;      Params:         0       0       0       0       0       0       0       0       0       0       0       0       
      +0       0       0       0       0       0       0       0       0       0       0       0       0       0       0
  3593 ;;      Locals:         0       0       0       0       0       0       0       0       0       0       0       0       
      +0       0       0       0       0       0       0       0       0       0       0       0       0       0       0
  3594 ;;      Temps:          0       0       0       0       0       0       0       0       0       0       0       0       
      +0       0       0       0       0       0       0       0       0       0       0       0       0       0       0
  3595 ;;      Totals:         0       0       0       0       0       0       0       0       0       0       0       0       
      +0       0       0       0       0       0       0       0       0       0       0       0       0       0       0
  3596 ;;Total ram usage:        0 bytes
  3597 ;; Hardware stack levels used:    1
  3598 ;; Hardware stack levels required when called:    2
  3599 ;; This function calls:
  3600 ;;		_internal_16
  3601 ;; This function is called by:
  3602 ;;		_main
  3603 ;; This function uses a non-reentrant model
  3604 ;;
  3605                           
  3606                           
  3607                           ;psect for function _initClock
  3608  0328                     _initClock:	
  3609                           
  3610                           ;main.c: 155:     internal_16();
  3611                           
  3612                           ;incstack = 0
  3613                           ; Regs used in _initClock: [status,2+status,0+pclath+cstack]
  3614  0328  3182  22EC         	fcall	_internal_16
  3615  032A  0008               	return
  3616  032B                     __end_of_initClock:	
  3617                           
  3618                           	psect	text16
  3619  02EC                     __ptext16:	
  3620 ;; *************** function _internal_16 *****************
  3621 ;; Defined at:
  3622 ;;		line 26 in file "pic16f1719_internals.c"
  3623 ;; Parameters:    Size  Location     Type
  3624 ;;		None
  3625 ;; Auto vars:     Size  Location     Type
  3626 ;;		None
  3627 ;; Return value:  Size  Location     Type
  3628 ;;                  1    wreg      void 
  3629 ;; Registers used:
  3630 ;;		None
  3631 ;; Tracked objects:
  3632 ;;		On entry : 0/0
  3633 ;;		On exit  : 0/0
  3634 ;;		Unchanged: 0/0
  3635 ;; Data sizes:     COMMON   BANK0   BANK1   BANK2   BANK3   BANK4   BANK5   BANK6   BANK7   BANK8   BANK9  BANK10  BANK1
      +1  BANK12  BANK13  BANK14  BANK15  BANK16  BANK17  BANK18  BANK19  BANK20  BANK21  BANK22  BANK23  BANK24  BANK25
  3636 ;;      Params:         0       0       0       0       0       0       0       0       0       0       0       0       
      +0       0       0       0       0       0       0       0       0       0       0       0       0       0       0
  3637 ;;      Locals:         0       0       0       0       0       0       0       0       0       0       0       0       
      +0       0       0       0       0       0       0       0       0       0       0       0       0       0       0
  3638 ;;      Temps:          0       0       0       0       0       0       0       0       0       0       0       0       
      +0       0       0       0       0       0       0       0       0       0       0       0       0       0       0
  3639 ;;      Totals:         0       0       0       0       0       0       0       0       0       0       0       0       
      +0       0       0       0       0       0       0       0       0       0       0       0       0       0       0
  3640 ;;Total ram usage:        0 bytes
  3641 ;; Hardware stack levels used:    1
  3642 ;; Hardware stack levels required when called:    1
  3643 ;; This function calls:
  3644 ;;		Nothing
  3645 ;; This function is called by:
  3646 ;;		_initClock
  3647 ;; This function uses a non-reentrant model
  3648 ;;
  3649                           
  3650                           
  3651                           ;psect for function _internal_16
  3652  02EC                     _internal_16:	
  3653                           
  3654                           ;pic16f1719_internals.c: 28: SCS0 = 0;
  3655                           
  3656                           ;incstack = 0
  3657                           ; Regs used in _internal_16: []
  3658  02EC  0021               	movlb	1	; select bank1
  3659  02ED  1019               	bcf	25,0	;volatile
  3660                           
  3661                           ;pic16f1719_internals.c: 29: SCS1 = 0;
  3662  02EE  1099               	bcf	25,1	;volatile
  3663                           
  3664                           ;pic16f1719_internals.c: 31: IRCF0 = 1;
  3665  02EF  1599               	bsf	25,3	;volatile
  3666                           
  3667                           ;pic16f1719_internals.c: 32: IRCF1 = 1;
  3668  02F0  1619               	bsf	25,4	;volatile
  3669                           
  3670                           ;pic16f1719_internals.c: 33: IRCF2 = 1;
  3671  02F1  1699               	bsf	25,5	;volatile
  3672                           
  3673                           ;pic16f1719_internals.c: 34: IRCF3 = 1;
  3674  02F2  1719               	bsf	25,6	;volatile
  3675                           
  3676                           ;pic16f1719_internals.c: 36: SPLLEN = 0;
  3677  02F3  1399               	bcf	25,7	;volatile
  3678  02F4  0008               	return
  3679  02F5                     __end_of_internal_16:	
  3680                           
  3681                           	psect	text17
  3682  002B                     __ptext17:	
  3683 ;; *************** function _EUSART_Initialize *****************
  3684 ;; Defined at:
  3685 ;;		line 6 in file "EUSART.c"
  3686 ;; Parameters:    Size  Location     Type
  3687 ;;  baudrate        4    6[BANK0 ] const long 
  3688 ;; Auto vars:     Size  Location     Type
  3689 ;;  x               2   10[COMMON] unsigned int 
  3690 ;; Return value:  Size  Location     Type
  3691 ;;                  1    wreg      unsigned char 
  3692 ;; Registers used:
  3693 ;;		wreg, status,2, status,0, pclath, cstack
  3694 ;; Tracked objects:
  3695 ;;		On entry : 0/0
  3696 ;;		On exit  : 0/0
  3697 ;;		Unchanged: 0/0
  3698 ;; Data sizes:     COMMON   BANK0   BANK1   BANK2   BANK3   BANK4   BANK5   BANK6   BANK7   BANK8   BANK9  BANK10  BANK1
      +1  BANK12  BANK13  BANK14  BANK15  BANK16  BANK17  BANK18  BANK19  BANK20  BANK21  BANK22  BANK23  BANK24  BANK25
  3699 ;;      Params:         0       4       0       0       0       0       0       0       0       0       0       0       
      +0       0       0       0       0       0       0       0       0       0       0       0       0       0       0
  3700 ;;      Locals:         2       0       0       0       0       0       0       0       0       0       0       0       
      +0       0       0       0       0       0       0       0       0       0       0       0       0       0       0
  3701 ;;      Temps:          0      12       0       0       0       0       0       0       0       0       0       0       
      +0       0       0       0       0       0       0       0       0       0       0       0       0       0       0
  3702 ;;      Totals:         2      16       0       0       0       0       0       0       0       0       0       0       
      +0       0       0       0       0       0       0       0       0       0       0       0       0       0       0
  3703 ;;Total ram usage:       18 bytes
  3704 ;; Hardware stack levels used:    1
  3705 ;; Hardware stack levels required when called:    2
  3706 ;; This function calls:
  3707 ;;		___aldiv
  3708 ;; This function is called by:
  3709 ;;		_main
  3710 ;; This function uses a non-reentrant model
  3711 ;;
  3712                           
  3713                           
  3714                           ;psect for function _EUSART_Initialize
  3715  002B                     _EUSART_Initialize:	
  3716                           
  3717                           ;EUSART.c: 6: char EUSART_Initialize(const long int baudrate);EUSART.c: 7: {;EUSART.c: 8
      +                          :  unsigned int x;;EUSART.c: 9:  x = (16000000 - baudrate*64)/(baudrate*64);
  3718                           
  3719                           ;incstack = 0
  3720                           ; Regs used in _EUSART_Initialize: [wreg+status,2+status,0+pclath+cstack]
  3721  002B  0020               	movlb	0	; select bank0
  3722  002C  0826               	movf	EUSART_Initialize@baudrate,w
  3723  002D  00AA               	movwf	??_EUSART_Initialize
  3724  002E  0827               	movf	EUSART_Initialize@baudrate+1,w
  3725  002F  00AB               	movwf	??_EUSART_Initialize+1
  3726  0030  0828               	movf	EUSART_Initialize@baudrate+2,w
  3727  0031  00AC               	movwf	??_EUSART_Initialize+2
  3728  0032  0829               	movf	EUSART_Initialize@baudrate+3,w
  3729  0033  00AD               	movwf	??_EUSART_Initialize+3
  3730  0034  3006               	movlw	6
  3731  0035                     u605:	
  3732  0035  35AA               	lslf	??_EUSART_Initialize,f
  3733  0036  0DAB               	rlf	??_EUSART_Initialize+1,f
  3734  0037  0DAC               	rlf	??_EUSART_Initialize+2,f
  3735  0038  0DAD               	rlf	??_EUSART_Initialize+3,f
  3736  0039  0B89               	decfsz	9,f
  3737  003A  2835               	goto	u605
  3738  003B  082D               	movf	??_EUSART_Initialize+3,w
  3739  003C  00F4               	movwf	___aldiv@divisor+3
  3740  003D  082C               	movf	??_EUSART_Initialize+2,w
  3741  003E  00F3               	movwf	___aldiv@divisor+2
  3742  003F  082B               	movf	??_EUSART_Initialize+1,w
  3743  0040  00F2               	movwf	___aldiv@divisor+1
  3744  0041  082A               	movf	??_EUSART_Initialize,w
  3745  0042  00F1               	movwf	___aldiv@divisor
  3746  0043  0826               	movf	EUSART_Initialize@baudrate,w
  3747  0044  00AE               	movwf	??_EUSART_Initialize+4
  3748  0045  0827               	movf	EUSART_Initialize@baudrate+1,w
  3749  0046  00AF               	movwf	??_EUSART_Initialize+5
  3750  0047  0828               	movf	EUSART_Initialize@baudrate+2,w
  3751  0048  00B0               	movwf	??_EUSART_Initialize+6
  3752  0049  0829               	movf	EUSART_Initialize@baudrate+3,w
  3753  004A  00B1               	movwf	??_EUSART_Initialize+7
  3754  004B  3006               	movlw	6
  3755  004C                     u615:	
  3756  004C  35AE               	lslf	??_EUSART_Initialize+4,f
  3757  004D  0DAF               	rlf	??_EUSART_Initialize+5,f
  3758  004E  0DB0               	rlf	??_EUSART_Initialize+6,f
  3759  004F  0DB1               	rlf	??_EUSART_Initialize+7,f
  3760  0050  0B89               	decfsz	9,f
  3761  0051  284C               	goto	u615
  3762  0052  3000               	movlw	0
  3763  0053  00B2               	movwf	??_EUSART_Initialize+8
  3764  0054  3024               	movlw	36
  3765  0055  00B3               	movwf	??_EUSART_Initialize+9
  3766  0056  30F4               	movlw	244
  3767  0057  00B4               	movwf	??_EUSART_Initialize+10
  3768  0058  3000               	movlw	0
  3769  0059  00B5               	movwf	??_EUSART_Initialize+11
  3770  005A  082E               	movf	??_EUSART_Initialize+4,w
  3771  005B  02B2               	subwf	??_EUSART_Initialize+8,f
  3772  005C  082F               	movf	??_EUSART_Initialize+5,w
  3773  005D  3BB3               	subwfb	??_EUSART_Initialize+9,f
  3774  005E  0830               	movf	??_EUSART_Initialize+6,w
  3775  005F  3BB4               	subwfb	??_EUSART_Initialize+10,f
  3776  0060  0831               	movf	??_EUSART_Initialize+7,w
  3777  0061  3BB5               	subwfb	??_EUSART_Initialize+11,f
  3778  0062  0835               	movf	??_EUSART_Initialize+11,w
  3779  0063  00F8               	movwf	___aldiv@dividend+3
  3780  0064  0834               	movf	??_EUSART_Initialize+10,w
  3781  0065  00F7               	movwf	___aldiv@dividend+2
  3782  0066  0833               	movf	??_EUSART_Initialize+9,w
  3783  0067  00F6               	movwf	___aldiv@dividend+1
  3784  0068  0832               	movf	??_EUSART_Initialize+8,w
  3785  0069  00F5               	movwf	___aldiv@dividend
  3786  006A  3180  20D3  3180   	fcall	___aldiv
  3787  006D  0872               	movf	?___aldiv+1,w
  3788  006E  00FB               	movwf	EUSART_Initialize@x+1
  3789  006F  0871               	movf	?___aldiv,w
  3790  0070  00FA               	movwf	EUSART_Initialize@x
  3791                           
  3792                           ;EUSART.c: 10:  if(x>255)
  3793  0071  3001               	movlw	1
  3794  0072  027B               	subwf	EUSART_Initialize@x+1,w
  3795  0073  3000               	movlw	0
  3796  0074  1903               	skipnz
  3797  0075  027A               	subwf	EUSART_Initialize@x,w
  3798  0076  1C03               	skipc
  3799  0077  28C0               	goto	l1282
  3800                           
  3801                           ;EUSART.c: 11:  {;EUSART.c: 12:   x = (16000000 - baudrate*16)/(baudrate*16);
  3802  0078  0020               	movlb	0	; select bank0
  3803  0079  0826               	movf	EUSART_Initialize@baudrate,w
  3804  007A  00AA               	movwf	??_EUSART_Initialize
  3805  007B  0827               	movf	EUSART_Initialize@baudrate+1,w
  3806  007C  00AB               	movwf	??_EUSART_Initialize+1
  3807  007D  0828               	movf	EUSART_Initialize@baudrate+2,w
  3808  007E  00AC               	movwf	??_EUSART_Initialize+2
  3809  007F  0829               	movf	EUSART_Initialize@baudrate+3,w
  3810  0080  00AD               	movwf	??_EUSART_Initialize+3
  3811  0081  3004               	movlw	4
  3812  0082                     u635:	
  3813  0082  35AA               	lslf	??_EUSART_Initialize,f
  3814  0083  0DAB               	rlf	??_EUSART_Initialize+1,f
  3815  0084  0DAC               	rlf	??_EUSART_Initialize+2,f
  3816  0085  0DAD               	rlf	??_EUSART_Initialize+3,f
  3817  0086  0B89               	decfsz	9,f
  3818  0087  2882               	goto	u635
  3819  0088  082D               	movf	??_EUSART_Initialize+3,w
  3820  0089  00F4               	movwf	___aldiv@divisor+3
  3821  008A  082C               	movf	??_EUSART_Initialize+2,w
  3822  008B  00F3               	movwf	___aldiv@divisor+2
  3823  008C  082B               	movf	??_EUSART_Initialize+1,w
  3824  008D  00F2               	movwf	___aldiv@divisor+1
  3825  008E  082A               	movf	??_EUSART_Initialize,w
  3826  008F  00F1               	movwf	___aldiv@divisor
  3827  0090  0826               	movf	EUSART_Initialize@baudrate,w
  3828  0091  00AE               	movwf	??_EUSART_Initialize+4
  3829  0092  0827               	movf	EUSART_Initialize@baudrate+1,w
  3830  0093  00AF               	movwf	??_EUSART_Initialize+5
  3831  0094  0828               	movf	EUSART_Initialize@baudrate+2,w
  3832  0095  00B0               	movwf	??_EUSART_Initialize+6
  3833  0096  0829               	movf	EUSART_Initialize@baudrate+3,w
  3834  0097  00B1               	movwf	??_EUSART_Initialize+7
  3835  0098  3004               	movlw	4
  3836  0099                     u645:	
  3837  0099  35AE               	lslf	??_EUSART_Initialize+4,f
  3838  009A  0DAF               	rlf	??_EUSART_Initialize+5,f
  3839  009B  0DB0               	rlf	??_EUSART_Initialize+6,f
  3840  009C  0DB1               	rlf	??_EUSART_Initialize+7,f
  3841  009D  0B89               	decfsz	9,f
  3842  009E  2899               	goto	u645
  3843  009F  3000               	movlw	0
  3844  00A0  00B2               	movwf	??_EUSART_Initialize+8
  3845  00A1  3024               	movlw	36
  3846  00A2  00B3               	movwf	??_EUSART_Initialize+9
  3847  00A3  30F4               	movlw	244
  3848  00A4  00B4               	movwf	??_EUSART_Initialize+10
  3849  00A5  3000               	movlw	0
  3850  00A6  00B5               	movwf	??_EUSART_Initialize+11
  3851  00A7  082E               	movf	??_EUSART_Initialize+4,w
  3852  00A8  02B2               	subwf	??_EUSART_Initialize+8,f
  3853  00A9  082F               	movf	??_EUSART_Initialize+5,w
  3854  00AA  3BB3               	subwfb	??_EUSART_Initialize+9,f
  3855  00AB  0830               	movf	??_EUSART_Initialize+6,w
  3856  00AC  3BB4               	subwfb	??_EUSART_Initialize+10,f
  3857  00AD  0831               	movf	??_EUSART_Initialize+7,w
  3858  00AE  3BB5               	subwfb	??_EUSART_Initialize+11,f
  3859  00AF  0835               	movf	??_EUSART_Initialize+11,w
  3860  00B0  00F8               	movwf	___aldiv@dividend+3
  3861  00B1  0834               	movf	??_EUSART_Initialize+10,w
  3862  00B2  00F7               	movwf	___aldiv@dividend+2
  3863  00B3  0833               	movf	??_EUSART_Initialize+9,w
  3864  00B4  00F6               	movwf	___aldiv@dividend+1
  3865  00B5  0832               	movf	??_EUSART_Initialize+8,w
  3866  00B6  00F5               	movwf	___aldiv@dividend
  3867  00B7  3180  20D3  3180   	fcall	___aldiv
  3868  00BA  0872               	movf	?___aldiv+1,w
  3869  00BB  00FB               	movwf	EUSART_Initialize@x+1
  3870  00BC  0871               	movf	?___aldiv,w
  3871  00BD  00FA               	movwf	EUSART_Initialize@x
  3872                           
  3873                           ;EUSART.c: 13:   BRGH = 1;
  3874  00BE  0023               	movlb	3	; select bank3
  3875  00BF  151E               	bsf	30,2	;volatile
  3876  00C0                     l1282:	
  3877                           
  3878                           ;EUSART.c: 15:  if(x<256)
  3879  00C0  3001               	movlw	1
  3880  00C1  027B               	subwf	EUSART_Initialize@x+1,w
  3881  00C2  3000               	movlw	0
  3882  00C3  1903               	skipnz
  3883  00C4  027A               	subwf	EUSART_Initialize@x,w
  3884  00C5  1803               	skipnc
  3885  00C6  0008               	return
  3886                           
  3887                           ;EUSART.c: 16:  {;EUSART.c: 17:    SPBRG = x;
  3888  00C7  087A               	movf	EUSART_Initialize@x,w
  3889  00C8  0023               	movlb	3	; select bank3
  3890  00C9  009B               	movwf	27	;volatile
  3891                           
  3892                           ;EUSART.c: 18:    SYNC = 0;
  3893  00CA  121E               	bcf	30,4	;volatile
  3894                           
  3895                           ;EUSART.c: 19:    SPEN = 1;
  3896  00CB  179D               	bsf	29,7	;volatile
  3897                           
  3898                           ;EUSART.c: 20:           TRISC7 = 1;
  3899  00CC  0021               	movlb	1	; select bank1
  3900  00CD  178E               	bsf	14,7	;volatile
  3901                           
  3902                           ;EUSART.c: 21:           TRISC6 = 1;
  3903  00CE  170E               	bsf	14,6	;volatile
  3904                           
  3905                           ;EUSART.c: 22:           CREN = 1;
  3906  00CF  0023               	movlb	3	; select bank3
  3907  00D0  161D               	bsf	29,4	;volatile
  3908                           
  3909                           ;EUSART.c: 23:           TXEN = 1;
  3910  00D1  169E               	bsf	30,5	;volatile
  3911  00D2  0008               	return
  3912  00D3                     __end_of_EUSART_Initialize:	
  3913                           
  3914                           	psect	text18
  3915  00D3                     __ptext18:	
  3916 ;; *************** function ___aldiv *****************
  3917 ;; Defined at:
  3918 ;;		line 5 in file "C:\Program Files (x86)\Microchip\xc8\v2.05\pic\sources\c99\common\aldiv.c"
  3919 ;; Parameters:    Size  Location     Type
  3920 ;;  divisor         4    1[COMMON] long 
  3921 ;;  dividend        4    5[COMMON] long 
  3922 ;; Auto vars:     Size  Location     Type
  3923 ;;  quotient        4    2[BANK0 ] long 
  3924 ;;  sign            1    1[BANK0 ] unsigned char 
  3925 ;;  counter         1    0[BANK0 ] unsigned char 
  3926 ;; Return value:  Size  Location     Type
  3927 ;;                  4    1[COMMON] long 
  3928 ;; Registers used:
  3929 ;;		wreg, status,2, status,0
  3930 ;; Tracked objects:
  3931 ;;		On entry : 0/0
  3932 ;;		On exit  : 0/0
  3933 ;;		Unchanged: 0/0
  3934 ;; Data sizes:     COMMON   BANK0   BANK1   BANK2   BANK3   BANK4   BANK5   BANK6   BANK7   BANK8   BANK9  BANK10  BANK1
      +1  BANK12  BANK13  BANK14  BANK15  BANK16  BANK17  BANK18  BANK19  BANK20  BANK21  BANK22  BANK23  BANK24  BANK25
  3935 ;;      Params:         8       0       0       0       0       0       0       0       0       0       0       0       
      +0       0       0       0       0       0       0       0       0       0       0       0       0       0       0
  3936 ;;      Locals:         0       6       0       0       0       0       0       0       0       0       0       0       
      +0       0       0       0       0       0       0       0       0       0       0       0       0       0       0
  3937 ;;      Temps:          1       0       0       0       0       0       0       0       0       0       0       0       
      +0       0       0       0       0       0       0       0       0       0       0       0       0       0       0
  3938 ;;      Totals:         9       6       0       0       0       0       0       0       0       0       0       0       
      +0       0       0       0       0       0       0       0       0       0       0       0       0       0       0
  3939 ;;Total ram usage:       15 bytes
  3940 ;; Hardware stack levels used:    1
  3941 ;; Hardware stack levels required when called:    1
  3942 ;; This function calls:
  3943 ;;		Nothing
  3944 ;; This function is called by:
  3945 ;;		_EUSART_Initialize
  3946 ;; This function uses a non-reentrant model
  3947 ;;
  3948                           
  3949                           
  3950                           ;psect for function ___aldiv
  3951  00D3                     ___aldiv:	
  3952                           
  3953                           ;incstack = 0
  3954                           ; Regs used in ___aldiv: [wreg+status,2+status,0]
  3955  00D3  0020               	movlb	0	; select bank0
  3956  00D4  01A1               	clrf	___aldiv@sign
  3957  00D5  1FF4               	btfss	___aldiv@divisor+3,7
  3958  00D6  28E4               	goto	l451
  3959  00D7  09F1               	comf	___aldiv@divisor,f
  3960  00D8  09F2               	comf	___aldiv@divisor+1,f
  3961  00D9  09F3               	comf	___aldiv@divisor+2,f
  3962  00DA  09F4               	comf	___aldiv@divisor+3,f
  3963  00DB  0AF1               	incf	___aldiv@divisor,f
  3964  00DC  1903               	skipnz
  3965  00DD  0AF2               	incf	___aldiv@divisor+1,f
  3966  00DE  1903               	skipnz
  3967  00DF  0AF3               	incf	___aldiv@divisor+2,f
  3968  00E0  1903               	skipnz
  3969  00E1  0AF4               	incf	___aldiv@divisor+3,f
  3970  00E2  01A1               	clrf	___aldiv@sign
  3971  00E3  0AA1               	incf	___aldiv@sign,f
  3972  00E4                     l451:	
  3973  00E4  1FF8               	btfss	___aldiv@dividend+3,7
  3974  00E5  28F5               	goto	l1244
  3975  00E6  09F5               	comf	___aldiv@dividend,f
  3976  00E7  09F6               	comf	___aldiv@dividend+1,f
  3977  00E8  09F7               	comf	___aldiv@dividend+2,f
  3978  00E9  09F8               	comf	___aldiv@dividend+3,f
  3979  00EA  0AF5               	incf	___aldiv@dividend,f
  3980  00EB  1903               	skipnz
  3981  00EC  0AF6               	incf	___aldiv@dividend+1,f
  3982  00ED  1903               	skipnz
  3983  00EE  0AF7               	incf	___aldiv@dividend+2,f
  3984  00EF  1903               	skipnz
  3985  00F0  0AF8               	incf	___aldiv@dividend+3,f
  3986  00F1  3001               	movlw	1
  3987  00F2  00F9               	movwf	??___aldiv
  3988  00F3  0879               	movf	??___aldiv,w
  3989  00F4  06A1               	xorwf	___aldiv@sign,f
  3990  00F5                     l1244:	
  3991  00F5  3000               	movlw	0
  3992  00F6  00A5               	movwf	___aldiv@quotient+3
  3993  00F7  3000               	movlw	0
  3994  00F8  00A4               	movwf	___aldiv@quotient+2
  3995  00F9  3000               	movlw	0
  3996  00FA  00A3               	movwf	___aldiv@quotient+1
  3997  00FB  3000               	movlw	0
  3998  00FC  00A2               	movwf	___aldiv@quotient
  3999  00FD  0874               	movf	___aldiv@divisor+3,w
  4000  00FE  0473               	iorwf	___aldiv@divisor+2,w
  4001  00FF  0472               	iorwf	___aldiv@divisor+1,w
  4002  0100  0471               	iorwf	___aldiv@divisor,w
  4003  0101  1903               	skipnz
  4004  0102  293E               	goto	l1266
  4005  0103  01A0               	clrf	___aldiv@counter
  4006  0104  0AA0               	incf	___aldiv@counter,f
  4007  0105                     l1252:	
  4008  0105  1BF4               	btfsc	___aldiv@divisor+3,7
  4009  0106  2913               	goto	l1254
  4010  0107  3001               	movlw	1
  4011  0108                     u535:	
  4012  0108  35F1               	lslf	___aldiv@divisor,f
  4013  0109  0DF2               	rlf	___aldiv@divisor+1,f
  4014  010A  0DF3               	rlf	___aldiv@divisor+2,f
  4015  010B  0DF4               	rlf	___aldiv@divisor+3,f
  4016  010C  0B89               	decfsz	9,f
  4017  010D  2908               	goto	u535
  4018  010E  3001               	movlw	1
  4019  010F  00F9               	movwf	??___aldiv
  4020  0110  0879               	movf	??___aldiv,w
  4021  0111  07A0               	addwf	___aldiv@counter,f
  4022  0112  2905               	goto	l1252
  4023  0113                     l1254:	
  4024  0113  3001               	movlw	1
  4025  0114                     u555:	
  4026  0114  35A2               	lslf	___aldiv@quotient,f
  4027  0115  0DA3               	rlf	___aldiv@quotient+1,f
  4028  0116  0DA4               	rlf	___aldiv@quotient+2,f
  4029  0117  0DA5               	rlf	___aldiv@quotient+3,f
  4030  0118  0B89               	decfsz	9,f
  4031  0119  2914               	goto	u555
  4032  011A  0874               	movf	___aldiv@divisor+3,w
  4033  011B  0278               	subwf	___aldiv@dividend+3,w
  4034  011C  1D03               	skipz
  4035  011D  2928               	goto	u565
  4036  011E  0873               	movf	___aldiv@divisor+2,w
  4037  011F  0277               	subwf	___aldiv@dividend+2,w
  4038  0120  1D03               	skipz
  4039  0121  2928               	goto	u565
  4040  0122  0872               	movf	___aldiv@divisor+1,w
  4041  0123  0276               	subwf	___aldiv@dividend+1,w
  4042  0124  1D03               	skipz
  4043  0125  2928               	goto	u565
  4044  0126  0871               	movf	___aldiv@divisor,w
  4045  0127  0275               	subwf	___aldiv@dividend,w
  4046  0128                     u565:	
  4047  0128  1C03               	skipc
  4048  0129  2933               	goto	l1262
  4049  012A  0871               	movf	___aldiv@divisor,w
  4050  012B  02F5               	subwf	___aldiv@dividend,f
  4051  012C  0872               	movf	___aldiv@divisor+1,w
  4052  012D  3BF6               	subwfb	___aldiv@dividend+1,f
  4053  012E  0873               	movf	___aldiv@divisor+2,w
  4054  012F  3BF7               	subwfb	___aldiv@dividend+2,f
  4055  0130  0874               	movf	___aldiv@divisor+3,w
  4056  0131  3BF8               	subwfb	___aldiv@dividend+3,f
  4057  0132  1422               	bsf	___aldiv@quotient,0
  4058  0133                     l1262:	
  4059  0133  3001               	movlw	1
  4060  0134                     u575:	
  4061  0134  36F4               	lsrf	___aldiv@divisor+3,f
  4062  0135  0CF3               	rrf	___aldiv@divisor+2,f
  4063  0136  0CF2               	rrf	___aldiv@divisor+1,f
  4064  0137  0CF1               	rrf	___aldiv@divisor,f
  4065  0138  0B89               	decfsz	9,f
  4066  0139  2934               	goto	u575
  4067  013A  3001               	movlw	1
  4068  013B  02A0               	subwf	___aldiv@counter,f
  4069  013C  1D03               	btfss	3,2
  4070  013D  2913               	goto	l1254
  4071  013E                     l1266:	
  4072  013E  0821               	movf	___aldiv@sign,w
  4073  013F  1903               	btfsc	3,2
  4074  0140  294C               	goto	l1270
  4075  0141  09A2               	comf	___aldiv@quotient,f
  4076  0142  09A3               	comf	___aldiv@quotient+1,f
  4077  0143  09A4               	comf	___aldiv@quotient+2,f
  4078  0144  09A5               	comf	___aldiv@quotient+3,f
  4079  0145  0AA2               	incf	___aldiv@quotient,f
  4080  0146  1903               	skipnz
  4081  0147  0AA3               	incf	___aldiv@quotient+1,f
  4082  0148  1903               	skipnz
  4083  0149  0AA4               	incf	___aldiv@quotient+2,f
  4084  014A  1903               	skipnz
  4085  014B  0AA5               	incf	___aldiv@quotient+3,f
  4086  014C                     l1270:	
  4087  014C  0825               	movf	___aldiv@quotient+3,w
  4088  014D  00F4               	movwf	?___aldiv+3
  4089  014E  0824               	movf	___aldiv@quotient+2,w
  4090  014F  00F3               	movwf	?___aldiv+2
  4091  0150  0823               	movf	___aldiv@quotient+1,w
  4092  0151  00F2               	movwf	?___aldiv+1
  4093  0152  0822               	movf	___aldiv@quotient,w
  4094  0153  00F1               	movwf	?___aldiv
  4095  0154  0008               	return
  4096  0155                     __end_of___aldiv:	
  4097                           
  4098                           	psect	intentry
  4099  0004                     __pintentry:	
  4100 ;; *************** function _myIsr *****************
  4101 ;; Defined at:
  4102 ;;		line 58 in file "main.c"
  4103 ;; Parameters:    Size  Location     Type
  4104 ;;		None
  4105 ;; Auto vars:     Size  Location     Type
  4106 ;;		None
  4107 ;; Return value:  Size  Location     Type
  4108 ;;                  1    wreg      void 
  4109 ;; Registers used:
  4110 ;;		wreg, status,2, status,0
  4111 ;; Tracked objects:
  4112 ;;		On entry : 0/0
  4113 ;;		On exit  : 0/0
  4114 ;;		Unchanged: 0/0
  4115 ;; Data sizes:     COMMON   BANK0   BANK1   BANK2   BANK3   BANK4   BANK5   BANK6   BANK7   BANK8   BANK9  BANK10  BANK1
      +1  BANK12  BANK13  BANK14  BANK15  BANK16  BANK17  BANK18  BANK19  BANK20  BANK21  BANK22  BANK23  BANK24  BANK25
  4116 ;;      Params:         0       0       0       0       0       0       0       0       0       0       0       0       
      +0       0       0       0       0       0       0       0       0       0       0       0       0       0       0
  4117 ;;      Locals:         0       0       0       0       0       0       0       0       0       0       0       0       
      +0       0       0       0       0       0       0       0       0       0       0       0       0       0       0
  4118 ;;      Temps:          1       0       0       0       0       0       0       0       0       0       0       0       
      +0       0       0       0       0       0       0       0       0       0       0       0       0       0       0
  4119 ;;      Totals:         1       0       0       0       0       0       0       0       0       0       0       0       
      +0       0       0       0       0       0       0       0       0       0       0       0       0       0       0
  4120 ;;Total ram usage:        1 bytes
  4121 ;; Hardware stack levels used:    1
  4122 ;; This function calls:
  4123 ;;		Nothing
  4124 ;; This function is called by:
  4125 ;;		Interrupt level 1
  4126 ;; This function uses a non-reentrant model
  4127 ;;
  4128                           
  4129  0004                     _myIsr:	
  4130                           
  4131                           ;incstack = 0
  4132  0004  147E               	bsf	126,0	;set compiler interrupt flag (level 1)
  4133                           
  4134                           ; Regs used in _myIsr: [wreg+status,2+status,0]
  4135  0005  3180               	pagesel	$
  4136                           
  4137                           ;main.c: 60:     static uint8_t count = 0;;main.c: 62:     if (PIR1bits.TMR1IF && PIE1bi
      +                          ts.TMR1IE) {
  4138  0006  0020               	movlb	0	; select bank0
  4139  0007  1C11               	btfss	17,0	;volatile
  4140  0008  281B               	goto	i1l95
  4141  0009  0021               	movlb	1	; select bank1
  4142  000A  1C11               	btfss	17,0	;volatile
  4143  000B  281B               	goto	i1l95
  4144                           
  4145                           ;main.c: 63:         PIR1bits.TMR1IF = 0;
  4146  000C  0020               	movlb	0	; select bank0
  4147  000D  1011               	bcf	17,0	;volatile
  4148                           
  4149                           ;main.c: 64:         count++;
  4150  000E  3001               	movlw	1
  4151  000F  00F0               	movwf	??_myIsr
  4152  0010  0870               	movf	??_myIsr,w
  4153  0011  07C1               	addwf	myIsr@count,f
  4154                           
  4155                           ;main.c: 67:         if (count == 61) {
  4156  0012  303D               	movlw	61
  4157  0013  0641               	xorwf	myIsr@count,w
  4158  0014  1D03               	btfss	3,2
  4159  0015  281B               	goto	i1l95
  4160                           
  4161                           ;main.c: 68:             tmr1_flag = 1;
  4162  0016  3001               	movlw	1
  4163  0017  00F0               	movwf	??_myIsr
  4164  0018  0870               	movf	??_myIsr,w
  4165  0019  00C2               	movwf	_tmr1_flag	;volatile
  4166                           
  4167                           ;main.c: 69:             count = 0;
  4168  001A  01C1               	clrf	myIsr@count
  4169  001B                     i1l95:	
  4170  001B  107E               	bcf	126,0	;clear compiler interrupt flag (level 1)
  4171  001C  0009               	retfie
  4172  001D                     __end_of_myIsr:	
  4173  007E                     btemp	set	126	;btemp
  4174  007E                     int$flags	set	126
  4175  007E                     wtemp0	set	126


Data Sizes:
    Strings     0
    Constant    90
    Data        0
    BSS         14
    Persistent  32
    Stack       0

Auto Spaces:
    Space          Size  Autos    Used
    COMMON           14     12      13
    BANK0            80     23      36
    BANK1            80      0       0
    BANK2            80      0       0
    BANK3            80      0       0
    BANK4            80      0       0
    BANK5            80      0       0
    BANK6            80      0       0
    BANK7            80      0       0
    BANK8            80      0       0
    BANK9            80      0       0
    BANK10           80      0       0
    BANK11           80      0       0
    BANK12           80      0       0
    BANK13           80      0       0
    BANK14           80      0       0
    BANK15           80      0       0
    BANK16           80      0       0
    BANK17           80      0       0
    BANK18           80      0       0
    BANK19           80      0       0
    BANK20           80      0       0
    BANK21           80      0       0
    BANK22           80      0       0
    BANK23           80      0       0
    BANK24           80      0       0
    BANK25           32      0       0

Pointer List with Targets:

    None.

Critical Paths under _main in COMMON

    _main->_EUSART_Initialize
    _statemachine->_beginAFEcommunication
    _beginAFEcommunication->_I2C_writeRegister
    _I2C_writeRegister->_send_I2C_controlByte
    _RGB_AWAIT_AFE_CONN->_RGB_color
    _EUSART_Initialize->___aldiv

Critical Paths under _myIsr in COMMON

    None.

Critical Paths under _main in BANK0

    _main->_EUSART_Initialize
    _statemachine->_beginAFEcommunication
    _EUSART_Initialize->___aldiv

Critical Paths under _myIsr in BANK0

    None.

Critical Paths under _main in BANK1

    None.

Critical Paths under _myIsr in BANK1

    None.

Critical Paths under _main in BANK2

    None.

Critical Paths under _myIsr in BANK2

    None.

Critical Paths under _main in BANK3

    None.

Critical Paths under _myIsr in BANK3

    None.

Critical Paths under _main in BANK4

    None.

Critical Paths under _myIsr in BANK4

    None.

Critical Paths under _main in BANK5

    None.

Critical Paths under _myIsr in BANK5

    None.

Critical Paths under _main in BANK6

    None.

Critical Paths under _myIsr in BANK6

    None.

Critical Paths under _main in BANK7

    None.

Critical Paths under _myIsr in BANK7

    None.

Critical Paths under _main in BANK8

    None.

Critical Paths under _myIsr in BANK8

    None.

Critical Paths under _main in BANK9

    None.

Critical Paths under _myIsr in BANK9

    None.

Critical Paths under _main in BANK10

    None.

Critical Paths under _myIsr in BANK10

    None.

Critical Paths under _main in BANK11

    None.

Critical Paths under _myIsr in BANK11

    None.

Critical Paths under _main in BANK12

    None.

Critical Paths under _myIsr in BANK12

    None.

Critical Paths under _main in BANK13

    None.

Critical Paths under _myIsr in BANK13

    None.

Critical Paths under _main in BANK14

    None.

Critical Paths under _myIsr in BANK14

    None.

Critical Paths under _main in BANK15

    None.

Critical Paths under _myIsr in BANK15

    None.

Critical Paths under _main in BANK16

    None.

Critical Paths under _myIsr in BANK16

    None.

Critical Paths under _main in BANK17

    None.

Critical Paths under _myIsr in BANK17

    None.

Critical Paths under _main in BANK18

    None.

Critical Paths under _myIsr in BANK18

    None.

Critical Paths under _main in BANK19

    None.

Critical Paths under _myIsr in BANK19

    None.

Critical Paths under _main in BANK20

    None.

Critical Paths under _myIsr in BANK20

    None.

Critical Paths under _main in BANK21

    None.

Critical Paths under _myIsr in BANK21

    None.

Critical Paths under _main in BANK22

    None.

Critical Paths under _myIsr in BANK22

    None.

Critical Paths under _main in BANK23

    None.

Critical Paths under _myIsr in BANK23

    None.

Critical Paths under _main in BANK24

    None.

Critical Paths under _myIsr in BANK24

    None.

Critical Paths under _main in BANK25

    None.

Critical Paths under _myIsr in BANK25

    None.

Call Graph Tables:

 ---------------------------------------------------------------------------------
 (Depth) Function   	        Calls       Base Space   Used Autos Params    Refs
 ---------------------------------------------------------------------------------
 (0) _main                                                 1     1      0    2505
                                             22 BANK0      1     1      0
                  _EUSART_Initialize
                          _initClock
                          _init_GPIO
                           _init_I2C
                           _init_RGB
                          _init_TMR1
                       _statemachine
 ---------------------------------------------------------------------------------
 (1) _statemachine                                         2     2      0    1669
                                              3 BANK0      2     2      0
                 _RGB_AWAIT_AFE_CONN
                          _RGB_color
              _beginAFEcommunication
                           _init_AFE
 ---------------------------------------------------------------------------------
 (2) _init_AFE                                             0     0      0       0
 ---------------------------------------------------------------------------------
 (2) _beginAFEcommunication                                4     4      0    1135
                                             11 COMMON     1     1      0
                                              0 BANK0      3     3      0
                  _I2C_writeRegister
 ---------------------------------------------------------------------------------
 (3) _I2C_writeRegister                                    6     0      6    1044
                                              5 COMMON     6     0      6
               _send_I2C_controlByte
                      _send_I2C_data
                  _send_I2C_startBit
                   _send_I2C_stopBit
 ---------------------------------------------------------------------------------
 (4) _send_I2C_stopBit                                     0     0      0       0
 ---------------------------------------------------------------------------------
 (4) _send_I2C_startBit                                    0     0      0       0
 ---------------------------------------------------------------------------------
 (4) _send_I2C_data                                        2     0      2     250
                                              1 COMMON     2     0      2
 ---------------------------------------------------------------------------------
 (4) _send_I2C_controlByte                                 4     0      4     500
                                              1 COMMON     4     0      4
 ---------------------------------------------------------------------------------
 (2) _RGB_AWAIT_AFE_CONN                                   1     1      0     250
                                              3 COMMON     1     1      0
                          _RGB_color
 ---------------------------------------------------------------------------------
 (2) _RGB_color                                            2     0      2     250
                                              1 COMMON     2     0      2
 ---------------------------------------------------------------------------------
 (1) _init_TMR1                                            0     0      0       0
 ---------------------------------------------------------------------------------
 (1) _init_RGB                                             0     0      0       0
 ---------------------------------------------------------------------------------
 (1) _init_I2C                                             1     1      0       0
                                              1 COMMON     1     1      0
 ---------------------------------------------------------------------------------
 (1) _init_GPIO                                            0     0      0       0
 ---------------------------------------------------------------------------------
 (1) _initClock                                            0     0      0       0
                        _internal_16
 ---------------------------------------------------------------------------------
 (2) _internal_16                                          0     0      0       0
 ---------------------------------------------------------------------------------
 (1) _EUSART_Initialize                                   18    14      4     836
                                             10 COMMON     2     2      0
                                              6 BANK0     16    12      4
                            ___aldiv
 ---------------------------------------------------------------------------------
 (2) ___aldiv                                             15     7      8     604
                                              1 COMMON     9     1      8
                                              0 BANK0      6     6      0
 ---------------------------------------------------------------------------------
 Estimated maximum stack depth 4
 ---------------------------------------------------------------------------------
 (Depth) Function   	        Calls       Base Space   Used Autos Params    Refs
 ---------------------------------------------------------------------------------
 (5) _myIsr                                                1     1      0       0
                                              0 COMMON     1     1      0
 ---------------------------------------------------------------------------------
 Estimated maximum stack depth 5
 ---------------------------------------------------------------------------------

 Call Graph Graphs:

 _main (ROOT)
   _EUSART_Initialize
     ___aldiv
   _initClock
     _internal_16
   _init_GPIO
   _init_I2C
   _init_RGB
   _init_TMR1
   _statemachine
     _RGB_AWAIT_AFE_CONN
       _RGB_color
     _RGB_color
     _beginAFEcommunication
       _I2C_writeRegister
         _send_I2C_controlByte
         _send_I2C_data
         _send_I2C_startBit
         _send_I2C_stopBit
     _init_AFE

 _myIsr (ROOT)

 Address spaces:
Name               Size   Autos  Total    Cost      Usage
BIGRAM             7F0      0       0       0        0.0%
NULL                 0      0       0       0        0.0%
CODE                 0      0       0       0        0.0%
BITCOMMON            E      0       0       1        0.0%
BITSFR0              0      0       0       1        0.0%
SFR0                 0      0       0       1        0.0%
COMMON               E      C       D       2       92.9%
BITSFR1              0      0       0       2        0.0%
SFR1                 0      0       0       2        0.0%
BITSFR2              0      0       0       3        0.0%
SFR2                 0      0       0       3        0.0%
STACK                0      0       0       3        0.0%
BITBANK0            50      0       0       4        0.0%
BITSFR3              0      0       0       4        0.0%
SFR3                 0      0       0       4        0.0%
BANK0               50     17      24       5       45.0%
BITSFR4              0      0       0       5        0.0%
SFR4                 0      0       0       5        0.0%
BITBANK1            50      0       0       6        0.0%
BITSFR5              0      0       0       6        0.0%
SFR5                 0      0       0       6        0.0%
BANK1               50      0       0       7        0.0%
BITSFR6              0      0       0       7        0.0%
SFR6                 0      0       0       7        0.0%
BITBANK2            50      0       0       8        0.0%
BITSFR7              0      0       0       8        0.0%
SFR7                 0      0       0       8        0.0%
BANK2               50      0       0       9        0.0%
BITSFR8              0      0       0       9        0.0%
SFR8                 0      0       0       9        0.0%
BITBANK3            50      0       0      10        0.0%
BITSFR9              0      0       0      10        0.0%
SFR9                 0      0       0      10        0.0%
BANK3               50      0       0      11        0.0%
BITSFR10             0      0       0      11        0.0%
SFR10                0      0       0      11        0.0%
BITBANK4            50      0       0      12        0.0%
BITSFR11             0      0       0      12        0.0%
SFR11                0      0       0      12        0.0%
BANK4               50      0       0      13        0.0%
BITSFR12             0      0       0      13        0.0%
SFR12                0      0       0      13        0.0%
BITSFR13             0      0       0      14        0.0%
SFR13                0      0       0      14        0.0%
ABS                  0      0      31      14        0.0%
BITBANK5            50      0       0      15        0.0%
BITSFR14             0      0       0      15        0.0%
SFR14                0      0       0      15        0.0%
BANK5               50      0       0      16        0.0%
BITSFR15             0      0       0      16        0.0%
SFR15                0      0       0      16        0.0%
BITBANK6            50      0       0      17        0.0%
BITSFR16             0      0       0      17        0.0%
SFR16                0      0       0      17        0.0%
BANK6               50      0       0      18        0.0%
BITSFR17             0      0       0      18        0.0%
SFR17                0      0       0      18        0.0%
BITBANK7            50      0       0      19        0.0%
BITSFR18             0      0       0      19        0.0%
SFR18                0      0       0      19        0.0%
BANK7               50      0       0      20        0.0%
BITSFR19             0      0       0      20        0.0%
SFR19                0      0       0      20        0.0%
BITBANK8            50      0       0      21        0.0%
BITSFR20             0      0       0      21        0.0%
SFR20                0      0       0      21        0.0%
BANK8               50      0       0      22        0.0%
BITSFR21             0      0       0      22        0.0%
SFR21                0      0       0      22        0.0%
BITBANK9            50      0       0      23        0.0%
BITSFR22             0      0       0      23        0.0%
SFR22                0      0       0      23        0.0%
BANK9               50      0       0      24        0.0%
BITSFR23             0      0       0      24        0.0%
SFR23                0      0       0      24        0.0%
BITBANK10           50      0       0      25        0.0%
BITSFR24             0      0       0      25        0.0%
SFR24                0      0       0      25        0.0%
BANK10              50      0       0      26        0.0%
BITSFR25             0      0       0      26        0.0%
SFR25                0      0       0      26        0.0%
BITBANK11           50      0       0      27        0.0%
BITSFR26             0      0       0      27        0.0%
SFR26                0      0       0      27        0.0%
BITSFR27             0      0       0      28        0.0%
SFR27                0      0       0      28        0.0%
DATA                 0      0      31      28        0.0%
BANK11              50      0       0      29        0.0%
BITSFR28             0      0       0      29        0.0%
SFR28                0      0       0      29        0.0%
BITBANK12           50      0       0      30        0.0%
BITSFR29             0      0       0      30        0.0%
SFR29                0      0       0      30        0.0%
BANK12              50      0       0      31        0.0%
BITSFR30             0      0       0      31        0.0%
SFR30                0      0       0      31        0.0%
BITBANK13           50      0       0      32        0.0%
BITSFR31             0      0       0      32        0.0%
SFR31                0      0       0      32        0.0%
BANK13              50      0       0      33        0.0%
BITBANK14           50      0       0      34        0.0%
BANK14              50      0       0      35        0.0%
BITBANK15           50      0       0      36        0.0%
BANK15              50      0       0      37        0.0%
BITBANK16           50      0       0      38        0.0%
BANK16              50      0       0      39        0.0%
BITBANK17           50      0       0      40        0.0%
BANK17              50      0       0      41        0.0%
BITBANK18           50      0       0      42        0.0%
BANK18              50      0       0      43        0.0%
BITBANK19           50      0       0      44        0.0%
BANK19              50      0       0      45        0.0%
BITBANK20           50      0       0      46        0.0%
BANK20              50      0       0      47        0.0%
BITBANK21           50      0       0      48        0.0%
BANK21              50      0       0      49        0.0%
BITBANK22           50      0       0      50        0.0%
BANK22              50      0       0      51        0.0%
BITBANK23           50      0       0      52        0.0%
BANK23              50      0       0      53        0.0%
BITBANK24           50      0       0      54        0.0%
BANK24              50      0       0      55        0.0%
BITBANK25           20      0       0      56        0.0%
BANK25              20      0       0      57        0.0%


Microchip Technology PIC Macro Assembler V2.05 build -831301201 
Symbol Table                                                                                   Thu Dec 19 19:06:23 2019

           __end_of_send_I2C_data 02EC                       __CFG_CP$OFF 0000                               l113 0190  
                             l225 02E8                               l243 0319                               l237 02DF  
                             l249 0311                               l290 025F                               l451 00E4  
                             l286 0240                               l288 0245                               l289 024A  
                             u450 0225                               u460 0226                               u605 0035  
                             u470 0234                               u535 0108                               u615 004C  
                             u480 0235                               u555 0114                               u635 0082  
                             u565 0128                               u645 0099                               u575 0134  
                             u495 01E2                               u737 0217                               u747 0177  
                             u757 02C9                    RGB_color@color 0071                      __CFG_BORV$LO 0000  
                             wreg 0009                      __CFG_IESO$ON 0000                      _statemachine 0155  
                    __CFG_LVP$OFF 0000                              l1212 022F                              l1222 01CD  
                            l1252 0105                              l1244 00F5                              l1500 0254  
                            l1270 014C                              l1262 0133                              l1254 0113  
                            l1190 024F                              l1416 0156                              l1266 013E  
                            l1282 00C0                              l1434 017D                              l1438 0180  
                            l1454 0210                              l1498 0185                              _BRGH 0CF2  
                            _CREN 0CEC                              _SCS0 04C8                              _SCS1 04C9  
                            i1l95 001B                              _TMR1 0016                              _SPEN 0CEF  
                            _TXEN 0CF5                              _SYNC 0CF4                      __CFG_WRT$OFF 0000  
                            _main 01F5                              fsr0h 0005                              fsr1h 0007  
                            indf0 0000                              fsr0l 0004                              fsr1l 0006  
                            btemp 007E                              start 001D          __end_of_send_I2C_stopBit 0315  
            _send_I2C_controlByte 02D9                   __end_of___aldiv 0155                             ?_main 0070  
   I2C_writeRegister@slaveAddress 0075                     __CFG_WDTE$OFF 0000                             _IRCF0 04CB  
                           _IRCF1 04CC                             _IRCF2 04CD                             _IRCF3 04CE  
                           _SPBRG 019B                __size_of_RGB_color 0021                    __CFG_FCMEN$OFF 0000  
                           _myIsr 0004                    __CFG_BOREN$OFF 0000                             status 0003  
                           wtemp0 007E                 _SCD_delay_setting 0305                      ?_internal_16 0070  
                  __CFG_MCLRE$OFF 0000                   __initialization 001F                      __end_of_main 021D  
        __end_of_UV_delay_setting 0305            beginAFEcommunication@i 0021             ?_send_I2C_controlByte 0071  
                  __CFG_LPBOR$OFF 0000                 _ATmega328_address 032B                            ??_main 0036  
                  __CFG_PLLEN$OFF 0000                            ?_myIsr 0070                    __CFG_ZCDDIS$ON 0000  
   __end_of_OCD_threshold_setting 0280                            _RC1REG 0199         __end_of_SCD_delay_setting 030D  
                          _TX1REG 019A                            _SPLLEN 04CF                            _SSPADD 0212  
                          _TRISC6 0476                            _TRISC7 0477                            _SSPBUF 0211  
                  __CFG_PWRTE$OFF 0000                 __end_of_RGB_color 0260                         ??___aldiv 0079  
                  __CFG_STVREN$ON 0000                  __end_of_init_I2C 02CE                  __end_of_init_AFE 032E  
                __end_of_init_RGB 0328         __end_of_ATmega328_address 032D             _beginAFEcommunication 01C9  
    beginAFEcommunication@errCode 0020           __end_of__initialization 0027                    __pcstackCOMMON 0070  
          ??_send_I2C_controlByte 0075                     __end_of_myIsr 001D                      _cellVoltages 0037  
              _RGB_AWAIT_AFE_CONN 021D               ?_RGB_AWAIT_AFE_CONN 0070                           ??_myIsr 0070  
                      __pbssBANK0 0037                __size_of_init_GPIO 0038                __size_of_initClock 0003  
              __size_of_init_TMR1 000B               statemachine@success 0024                        __pmaintext 01F5  
            ??_RGB_AWAIT_AFE_CONN 0073              __size_of_internal_16 0009                 ?_send_I2C_stopBit 0070  
                 __CFG_PPS1WAY$ON 0000                        __pintentry 0004            ?_beginAFEcommunication 0070  
              ??_send_I2C_stopBit 0071                           _PPSLOCK 0E0F            __size_of_send_I2C_data 0009  
                       ?_init_I2C 0070                         ?_init_AFE 0070                         ?_init_RGB 0070  
                         ___aldiv 00D3                           __ptext1 0155                           __ptext2 032D  
                         __ptext3 01C9                           __ptext4 0280                           __ptext5 030D  
                         __ptext6 0315                           __ptext7 02E3                           __ptext8 02D9  
                         __ptext9 021D                 __end_of_init_GPIO 01C9                 __end_of_initClock 032B  
               __end_of_init_TMR1 02D9                         _T1CONbits 0018                  ___aldiv@dividend 0075  
                         clrloop0 031E              end_of_initialization 0027                        ??_init_I2C 0071  
                      ??_init_AFE 0071                        ??_init_RGB 0071                 _EUSART_Initialize 002B  
              ?_EUSART_Initialize 0026                  ___aldiv@quotient 0022        send_I2C_controlByte@RW_bit 0073  
                   _send_I2C_data 02E3                         _RGB_color 023F                EUSART_Initialize@x 007A  
             ??_EUSART_Initialize 002A                  __CFG_FOSC$INTOSC 0000                         _TRISAbits 008C  
                       _TRISBbits 008D                         _TRISCbits 008E                         _TRISEbits 0090  
   __end_of_SCD_threshold_setting 02BE                         _RXPPSbits 0E24                 _I2C_writeRegister 0280  
       __end_of_EUSART_Initialize 00D3             _OCD_threshold_setting 0260                ?_I2C_writeRegister 0075  
                  ?_send_I2C_data 0071               ??_I2C_writeRegister 007B                        ?_RGB_color 0071  
     I2C_writeRegister@regAddress 0077               start_initialization 001F                     ?_statemachine 0070  
       __end_of_I2C_writeRegister 029E           ??_beginAFEcommunication 007B     __size_of_send_I2C_controlByte 000A  
                     __pbssCOMMON 007C                    ??_statemachine 0023                         ___latbits 0003  
send_I2C_controlByte@BlockAddress 0071                        myIsr@count 0041                     __pcstackBANK0 0020  
       __size_of_send_I2C_stopBit 0008        __size_of_EUSART_Initialize 00A8                     ??_internal_16 0071  
                _OV_delay_setting 02F5                 __size_of_init_I2C 0010             I2C_writeRegister@data 0079  
               __size_of_init_AFE 0001                 __size_of_init_RGB 0005                 _send_I2C_startBit 0315  
                 ??_send_I2C_data 0073       __size_of_RGB_AWAIT_AFE_CONN 0022                          ?___aldiv 0071  
              ?_send_I2C_startBit 0070                       ??_RGB_color 0073         EUSART_Initialize@baudrate 0026  
             ??_send_I2C_startBit 0071                         _init_GPIO 0191                         _initClock 0328  
                       _init_TMR1 02CE                         _currState 0043        __size_of_I2C_writeRegister 001E  
                  __size_of_myIsr 0019                   ___aldiv@divisor 0071                   ___aldiv@counter 0020  
                        _LATAbits 010C                          _LATEbits 0110         __end_of_send_I2C_startBit 031D  
                       clear_ram0 031D                         _tmr1_flag 0042                          _PIE1bits 0091  
                        _PIR1bits 0011               __end_of_internal_16 02F5                        ?_init_GPIO 0070  
                      ?_initClock 0070                        ?_init_TMR1 0070             send_I2C_data@databyte 0071  
               _OCD_delay_setting 029E              __end_of_statemachine 0191                  __size_of___aldiv 0082  
                      _ANSELBbits 018D                        _ANSELCbits 018E                  _send_I2C_stopBit 030D  
                        __ptext10 023F                          __ptext11 02CE                          __ptext12 0323  
                        __ptext13 02BE                          __ptext14 0191                          __ptext15 0328  
                        __ptext16 02EC                          __ptext17 002B                          __ptext18 00D3  
       __end_of_OCD_delay_setting 02AE                          _init_I2C 02BE                          _init_AFE 032D  
                        _init_RGB 0323                     __size_of_main 0028                     _SSPDATPPSbits 0E21  
           _SCD_threshold_setting 02AE        __size_of_send_I2C_startBit 0008                       _internal_16 02EC  
                      _RB2PPSbits 0E9A                        _RC1STAbits 019D                        _RC4PPSbits 0EA4  
  __size_of_beginAFEcommunication 002C                     _SSPCLKPPSbits 0E20     __end_of_beginAFEcommunication 01F5  
                        int$flags 007E                        _RC5PPSbits 0EA5          __end_of_OV_delay_setting 02FD  
                      _INTCONbits 000B                       ??_init_GPIO 0071                       ??_initClock 0071  
                     ??_init_TMR1 0071                  _UV_delay_setting 02FD      __end_of_send_I2C_controlByte 02E3  
                        intlevel1 0000                 __CFG_CLKOUTEN$OFF 0000                       _PPSLOCKbits 0E0F  
                   __pstringtext1 0260                     __pstringtext2 029E                     __pstringtext3 02AE  
                   __pstringtext4 02F5                     __pstringtext5 02FD                     __pstringtext6 0305  
                   __pstringtext7 032B                      ___aldiv@sign 0021                       _SSPCON2bits 0216  
           __size_of_statemachine 003C                       _toggleColor 007C                        _SSPCONbits 0215  
      __end_of_RGB_AWAIT_AFE_CONN 023F  
